(lp0
(idecision_tree
Node
p1
(dp2
S'kids'
p3
(lp4
(idecision_tree
Node
p5
(dp6
g3
(lp7
(idecision_tree
Node
p8
(dp9
g3
(lp10
(idecision_tree
Node
p11
(dp12
g3
(lp13
(idecision_tree
Node
p14
(dp15
g3
(lp16
sS'label'
p17
cnumpy.core.multiarray
scalar
p18
(cnumpy
dtype
p19
(S'i8'
p20
I0
I1
tp21
Rp22
(I3
S'<'
p23
NNNI-1
I-1
I0
tp24
bS'\x00\x00\x00\x00\x00\x00\x00\x00'
p25
tp26
Rp27
sS'op'
p28
Nsba(idecision_tree
Node
p29
(dp30
g3
(lp31
(idecision_tree
Node
p32
(dp33
g3
(lp34
sg17
g18
(g22
S'\x00\x00\x00\x00\x00\x00\x00\x00'
p35
tp36
Rp37
sg28
Nsba(idecision_tree
Node
p38
(dp39
g3
(lp40
(idecision_tree
Node
p41
(dp42
g3
(lp43
sg17
g18
(g22
S'\x00\x00\x00\x00\x00\x00\x00\x00'
p44
tp45
Rp46
sg28
Nsba(idecision_tree
Node
p47
(dp48
g3
(lp49
sg17
g18
(g22
S'\x01\x00\x00\x00\x00\x00\x00\x00'
p50
tp51
Rp52
sg28
Nsbasg17
Nsg28
I29
sbasg17
Nsg28
I43
sbasg17
Nsg28
I30
sba(idecision_tree
Node
p53
(dp54
g3
(lp55
(idecision_tree
Node
p56
(dp57
g3
(lp58
(idecision_tree
Node
p59
(dp60
g3
(lp61
(idecision_tree
Node
p62
(dp63
g3
(lp64
(idecision_tree
Node
p65
(dp66
g3
(lp67
(idecision_tree
Node
p68
(dp69
g3
(lp70
(idecision_tree
Node
p71
(dp72
g3
(lp73
sg17
g18
(g22
S'\x00\x00\x00\x00\x00\x00\x00\x00'
p74
tp75
Rp76
sg28
Nsba(idecision_tree
Node
p77
(dp78
g3
(lp79
(idecision_tree
Node
p80
(dp81
g3
(lp82
sg17
g18
(g22
S'\x00\x00\x00\x00\x00\x00\x00\x00'
p83
tp84
Rp85
sg28
Nsba(idecision_tree
Node
p86
(dp87
g3
(lp88
sg17
g18
(g22
S'\x01\x00\x00\x00\x00\x00\x00\x00'
p89
tp90
Rp91
sg28
Nsbasg17
Nsg28
I4
sbasg17
Nsg28
I22
sba(idecision_tree
Node
p92
(dp93
g3
(lp94
(idecision_tree
Node
p95
(dp96
g3
(lp97
sg17
I0
sg28
Nsba(idecision_tree
Node
p98
(dp99
g3
(lp100
sg17
g18
(g22
S'\x00\x00\x00\x00\x00\x00\x00\x00'
p101
tp102
Rp103
sg28
Nsbasg17
Nsg28
I18
sbasg17
Nsg28
I38
sba(idecision_tree
Node
p104
(dp105
g3
(lp106
(idecision_tree
Node
p107
(dp108
g3
(lp109
sg17
g18
(g22
S'\x00\x00\x00\x00\x00\x00\x00\x00'
p110
tp111
Rp112
sg28
Nsba(idecision_tree
Node
p113
(dp114
g3
(lp115
sg17
g18
(g22
S'\x01\x00\x00\x00\x00\x00\x00\x00'
p116
tp117
Rp118
sg28
Nsbasg17
Nsg28
I7
sbasg17
Nsg28
I32
sba(idecision_tree
Node
p119
(dp120
g3
(lp121
sg17
g18
(g22
S'\x00\x00\x00\x00\x00\x00\x00\x00'
p122
tp123
Rp124
sg28
Nsbasg17
Nsg28
I44
sba(idecision_tree
Node
p125
(dp126
g3
(lp127
sg17
g18
(g22
S'\x00\x00\x00\x00\x00\x00\x00\x00'
p128
tp129
Rp130
sg28
Nsbasg17
Nsg28
I24
sba(idecision_tree
Node
p131
(dp132
g3
(lp133
(idecision_tree
Node
p134
(dp135
g3
(lp136
sg17
g18
(g22
S'\x00\x00\x00\x00\x00\x00\x00\x00'
p137
tp138
Rp139
sg28
Nsba(idecision_tree
Node
p140
(dp141
g3
(lp142
(idecision_tree
Node
p143
(dp144
g3
(lp145
(idecision_tree
Node
p146
(dp147
g3
(lp148
sg17
g18
(g22
S'\x00\x00\x00\x00\x00\x00\x00\x00'
p149
tp150
Rp151
sg28
Nsba(idecision_tree
Node
p152
(dp153
g3
(lp154
(idecision_tree
Node
p155
(dp156
g3
(lp157
sg17
g18
(g22
S'\x01\x00\x00\x00\x00\x00\x00\x00'
p158
tp159
Rp160
sg28
Nsba(idecision_tree
Node
p161
(dp162
g3
(lp163
sg17
g18
(g22
S'\x00\x00\x00\x00\x00\x00\x00\x00'
p164
tp165
Rp166
sg28
Nsbasg17
Nsg28
I13
sbasg17
Nsg28
I4
sba(idecision_tree
Node
p167
(dp168
g3
(lp169
sg17
g18
(g22
S'\x01\x00\x00\x00\x00\x00\x00\x00'
p170
tp171
Rp172
sg28
Nsbasg17
Nsg28
I35
sbasg17
Nsg28
I16
sbasg17
Nsg28
I43
sbasg17
Nsg28
I3
sba(idecision_tree
Node
p173
(dp174
g3
(lp175
(idecision_tree
Node
p176
(dp177
g3
(lp178
(idecision_tree
Node
p179
(dp180
g3
(lp181
(idecision_tree
Node
p182
(dp183
g3
(lp184
(idecision_tree
Node
p185
(dp186
g3
(lp187
(idecision_tree
Node
p188
(dp189
g3
(lp190
(idecision_tree
Node
p191
(dp192
g3
(lp193
(idecision_tree
Node
p194
(dp195
g3
(lp196
(idecision_tree
Node
p197
(dp198
g3
(lp199
(idecision_tree
Node
p200
(dp201
g3
(lp202
sg17
g18
(g22
S'\x00\x00\x00\x00\x00\x00\x00\x00'
p203
tp204
Rp205
sg28
Nsba(idecision_tree
Node
p206
(dp207
g3
(lp208
sg17
g18
(g22
S'\x01\x00\x00\x00\x00\x00\x00\x00'
p209
tp210
Rp211
sg28
Nsbasg17
Nsg28
I39
sba(idecision_tree
Node
p212
(dp213
g3
(lp214
sg17
g18
(g22
S'\x01\x00\x00\x00\x00\x00\x00\x00'
p215
tp216
Rp217
sg28
Nsbasg17
Nsg28
I37
sba(idecision_tree
Node
p218
(dp219
g3
(lp220
sg17
g18
(g22
S'\x00\x00\x00\x00\x00\x00\x00\x00'
p221
tp222
Rp223
sg28
Nsbasg17
Nsg28
I16
sba(idecision_tree
Node
p224
(dp225
g3
(lp226
(idecision_tree
Node
p227
(dp228
g3
(lp229
sg17
g18
(g22
S'\x01\x00\x00\x00\x00\x00\x00\x00'
p230
tp231
Rp232
sg28
Nsba(idecision_tree
Node
p233
(dp234
g3
(lp235
sg17
g18
(g22
S'\x00\x00\x00\x00\x00\x00\x00\x00'
p236
tp237
Rp238
sg28
Nsbasg17
Nsg28
I33
sbasg17
Nsg28
I12
sba(idecision_tree
Node
p239
(dp240
g3
(lp241
sg17
g18
(g22
S'\x00\x00\x00\x00\x00\x00\x00\x00'
p242
tp243
Rp244
sg28
Nsbasg17
Nsg28
I19
sba(idecision_tree
Node
p245
(dp246
g3
(lp247
sg17
g18
(g22
S'\x00\x00\x00\x00\x00\x00\x00\x00'
p248
tp249
Rp250
sg28
Nsbasg17
Nsg28
I1
sba(idecision_tree
Node
p251
(dp252
g3
(lp253
sg17
g18
(g22
S'\x00\x00\x00\x00\x00\x00\x00\x00'
p254
tp255
Rp256
sg28
Nsbasg17
Nsg28
I11
sba(idecision_tree
Node
p257
(dp258
g3
(lp259
(idecision_tree
Node
p260
(dp261
g3
(lp262
sg17
g18
(g22
S'\x01\x00\x00\x00\x00\x00\x00\x00'
p263
tp264
Rp265
sg28
Nsba(idecision_tree
Node
p266
(dp267
g3
(lp268
sg17
g18
(g22
S'\x00\x00\x00\x00\x00\x00\x00\x00'
p269
tp270
Rp271
sg28
Nsbasg17
Nsg28
I0
sbasg17
Nsg28
I15
sba(idecision_tree
Node
p272
(dp273
g3
(lp274
(idecision_tree
Node
p275
(dp276
g3
(lp277
(idecision_tree
Node
p278
(dp279
g3
(lp280
(idecision_tree
Node
p281
(dp282
g3
(lp283
sg17
g18
(g22
S'\x00\x00\x00\x00\x00\x00\x00\x00'
p284
tp285
Rp286
sg28
Nsba(idecision_tree
Node
p287
(dp288
g3
(lp289
(idecision_tree
Node
p290
(dp291
g3
(lp292
sg17
g18
(g22
S'\x00\x00\x00\x00\x00\x00\x00\x00'
p293
tp294
Rp295
sg28
Nsba(idecision_tree
Node
p296
(dp297
g3
(lp298
sg17
g18
(g22
S'\x01\x00\x00\x00\x00\x00\x00\x00'
p299
tp300
Rp301
sg28
Nsbasg17
Nsg28
I5
sbasg17
Nsg28
I29
sba(idecision_tree
Node
p302
(dp303
g3
(lp304
(idecision_tree
Node
p305
(dp306
g3
(lp307
sg17
g18
(g22
S'\x01\x00\x00\x00\x00\x00\x00\x00'
p308
tp309
Rp310
sg28
Nsba(idecision_tree
Node
p311
(dp312
g3
(lp313
(idecision_tree
Node
p314
(dp315
g3
(lp316
(idecision_tree
Node
p317
(dp318
g3
(lp319
(idecision_tree
Node
p320
(dp321
g3
(lp322
sg17
g18
(g22
S'\x01\x00\x00\x00\x00\x00\x00\x00'
p323
tp324
Rp325
sg28
Nsba(idecision_tree
Node
p326
(dp327
g3
(lp328
sg17
g18
(g22
S'\x00\x00\x00\x00\x00\x00\x00\x00'
p329
tp330
Rp331
sg28
Nsbasg17
Nsg28
I14
sba(idecision_tree
Node
p332
(dp333
g3
(lp334
sg17
g18
(g22
S'\x00\x00\x00\x00\x00\x00\x00\x00'
p335
tp336
Rp337
sg28
Nsbasg17
Nsg28
I4
sba(idecision_tree
Node
p338
(dp339
g3
(lp340
sg17
g18
(g22
S'\x00\x00\x00\x00\x00\x00\x00\x00'
p341
tp342
Rp343
sg28
Nsbasg17
Nsg28
I1
sbasg17
Nsg28
I0
sbasg17
Nsg28
I15
sba(idecision_tree
Node
p344
(dp345
g3
(lp346
(idecision_tree
Node
p347
(dp348
g3
(lp349
(idecision_tree
Node
p350
(dp351
g3
(lp352
(idecision_tree
Node
p353
(dp354
g3
(lp355
sg17
g18
(g22
S'\x01\x00\x00\x00\x00\x00\x00\x00'
p356
tp357
Rp358
sg28
Nsba(idecision_tree
Node
p359
(dp360
g3
(lp361
(idecision_tree
Node
p362
(dp363
g3
(lp364
sg17
g18
(g22
S'\x01\x00\x00\x00\x00\x00\x00\x00'
p365
tp366
Rp367
sg28
Nsba(idecision_tree
Node
p368
(dp369
g3
(lp370
sg17
g18
(g22
S'\x00\x00\x00\x00\x00\x00\x00\x00'
p371
tp372
Rp373
sg28
Nsbasg17
Nsg28
I19
sbasg17
Nsg28
I0
sba(idecision_tree
Node
p374
(dp375
g3
(lp376
sg17
g18
(g22
S'\x00\x00\x00\x00\x00\x00\x00\x00'
p377
tp378
Rp379
sg28
Nsbasg17
Nsg28
I7
sba(idecision_tree
Node
p380
(dp381
g3
(lp382
sg17
g18
(g22
S'\x00\x00\x00\x00\x00\x00\x00\x00'
p383
tp384
Rp385
sg28
Nsbasg17
Nsg28
I12
sbasg17
Nsg28
I16
sbasg17
Nsg28
I3
sbasg17
Nsg28
I6
sba(idecision_tree
Node
p386
(dp387
g3
(lp388
(idecision_tree
Node
p389
(dp390
g3
(lp391
(idecision_tree
Node
p392
(dp393
g3
(lp394
sg17
g18
(g22
S'\x00\x00\x00\x00\x00\x00\x00\x00'
p395
tp396
Rp397
sg28
Nsba(idecision_tree
Node
p398
(dp399
g3
(lp400
(idecision_tree
Node
p401
(dp402
g3
(lp403
(idecision_tree
Node
p404
(dp405
g3
(lp406
(idecision_tree
Node
p407
(dp408
g3
(lp409
(idecision_tree
Node
p410
(dp411
g3
(lp412
(idecision_tree
Node
p413
(dp414
g3
(lp415
(idecision_tree
Node
p416
(dp417
g3
(lp418
(idecision_tree
Node
p419
(dp420
g3
(lp421
sg17
g18
(g22
S'\x01\x00\x00\x00\x00\x00\x00\x00'
p422
tp423
Rp424
sg28
Nsba(idecision_tree
Node
p425
(dp426
g3
(lp427
(idecision_tree
Node
p428
(dp429
g3
(lp430
(idecision_tree
Node
p431
(dp432
g3
(lp433
sg17
g18
(g22
S'\x00\x00\x00\x00\x00\x00\x00\x00'
p434
tp435
Rp436
sg28
Nsba(idecision_tree
Node
p437
(dp438
g3
(lp439
sg17
g18
(g22
S'\x01\x00\x00\x00\x00\x00\x00\x00'
p440
tp441
Rp442
sg28
Nsbasg17
Nsg28
I6
sba(idecision_tree
Node
p443
(dp444
g3
(lp445
sg17
g18
(g22
S'\x01\x00\x00\x00\x00\x00\x00\x00'
p446
tp447
Rp448
sg28
Nsbasg17
Nsg28
I0
sbasg17
Nsg28
I12
sba(idecision_tree
Node
p449
(dp450
g3
(lp451
sg17
g18
(g22
S'\x00\x00\x00\x00\x00\x00\x00\x00'
p452
tp453
Rp454
sg28
Nsbasg17
Nsg28
I38
sba(idecision_tree
Node
p455
(dp456
g3
(lp457
sg17
g18
(g22
S'\x00\x00\x00\x00\x00\x00\x00\x00'
p458
tp459
Rp460
sg28
Nsbasg17
Nsg28
I32
sba(idecision_tree
Node
p461
(dp462
g3
(lp463
sg17
g18
(g22
S'\x00\x00\x00\x00\x00\x00\x00\x00'
p464
tp465
Rp466
sg28
Nsbasg17
Nsg28
I24
sba(idecision_tree
Node
p467
(dp468
g3
(lp469
sg17
g18
(g22
S'\x00\x00\x00\x00\x00\x00\x00\x00'
p470
tp471
Rp472
sg28
Nsbasg17
Nsg28
I11
sba(idecision_tree
Node
p473
(dp474
g3
(lp475
sg17
g18
(g22
S'\x00\x00\x00\x00\x00\x00\x00\x00'
p476
tp477
Rp478
sg28
Nsbasg17
Nsg28
I8
sba(idecision_tree
Node
p479
(dp480
g3
(lp481
(idecision_tree
Node
p482
(dp483
g3
(lp484
(idecision_tree
Node
p485
(dp486
g3
(lp487
sg17
g18
(g22
S'\x00\x00\x00\x00\x00\x00\x00\x00'
p488
tp489
Rp490
sg28
Nsba(idecision_tree
Node
p491
(dp492
g3
(lp493
sg17
g18
(g22
S'\x01\x00\x00\x00\x00\x00\x00\x00'
p494
tp495
Rp496
sg28
Nsbasg17
Nsg28
I17
sba(idecision_tree
Node
p497
(dp498
g3
(lp499
sg17
g18
(g22
S'\x01\x00\x00\x00\x00\x00\x00\x00'
p500
tp501
Rp502
sg28
Nsbasg17
Nsg28
I27
sbasg17
Nsg28
I22
sbasg17
Nsg28
I16
sba(idecision_tree
Node
p503
(dp504
g3
(lp505
(idecision_tree
Node
p506
(dp507
g3
(lp508
(idecision_tree
Node
p509
(dp510
g3
(lp511
(idecision_tree
Node
p512
(dp513
g3
(lp514
(idecision_tree
Node
p515
(dp516
g3
(lp517
sg17
g18
(g22
S'\x01\x00\x00\x00\x00\x00\x00\x00'
p518
tp519
Rp520
sg28
Nsba(idecision_tree
Node
p521
(dp522
g3
(lp523
(idecision_tree
Node
p524
(dp525
g3
(lp526
sg17
g18
(g22
S'\x01\x00\x00\x00\x00\x00\x00\x00'
p527
tp528
Rp529
sg28
Nsba(idecision_tree
Node
p530
(dp531
g3
(lp532
sg17
g18
(g22
S'\x00\x00\x00\x00\x00\x00\x00\x00'
p533
tp534
Rp535
sg28
Nsbasg17
Nsg28
I38
sbasg17
Nsg28
I35
sba(idecision_tree
Node
p536
(dp537
g3
(lp538
(idecision_tree
Node
p539
(dp540
g3
(lp541
sg17
g18
(g22
S'\x01\x00\x00\x00\x00\x00\x00\x00'
p542
tp543
Rp544
sg28
Nsba(idecision_tree
Node
p545
(dp546
g3
(lp547
(idecision_tree
Node
p548
(dp549
g3
(lp550
sg17
g18
(g22
S'\x00\x00\x00\x00\x00\x00\x00\x00'
p551
tp552
Rp553
sg28
Nsba(idecision_tree
Node
p554
(dp555
g3
(lp556
sg17
g18
(g22
S'\x01\x00\x00\x00\x00\x00\x00\x00'
p557
tp558
Rp559
sg28
Nsbasg17
Nsg28
I21
sbasg17
Nsg28
I24
sbasg17
Nsg28
I39
sba(idecision_tree
Node
p560
(dp561
g3
(lp562
(idecision_tree
Node
p563
(dp564
g3
(lp565
(idecision_tree
Node
p566
(dp567
g3
(lp568
sg17
g18
(g22
S'\x01\x00\x00\x00\x00\x00\x00\x00'
p569
tp570
Rp571
sg28
Nsba(idecision_tree
Node
p572
(dp573
g3
(lp574
(idecision_tree
Node
p575
(dp576
g3
(lp577
sg17
g18
(g22
S'\x00\x00\x00\x00\x00\x00\x00\x00'
p578
tp579
Rp580
sg28
Nsba(idecision_tree
Node
p581
(dp582
g3
(lp583
sg17
g18
(g22
S'\x01\x00\x00\x00\x00\x00\x00\x00'
p584
tp585
Rp586
sg28
Nsbasg17
Nsg28
I26
sbasg17
Nsg28
I13
sba(idecision_tree
Node
p587
(dp588
g3
(lp589
sg17
g18
(g22
S'\x00\x00\x00\x00\x00\x00\x00\x00'
p590
tp591
Rp592
sg28
Nsbasg17
Nsg28
I43
sbasg17
Nsg28
I8
sba(idecision_tree
Node
p593
(dp594
g3
(lp595
(idecision_tree
Node
p596
(dp597
g3
(lp598
(idecision_tree
Node
p599
(dp600
g3
(lp601
(idecision_tree
Node
p602
(dp603
g3
(lp604
(idecision_tree
Node
p605
(dp606
g3
(lp607
sg17
g18
(g22
S'\x01\x00\x00\x00\x00\x00\x00\x00'
p608
tp609
Rp610
sg28
Nsba(idecision_tree
Node
p611
(dp612
g3
(lp613
sg17
g18
(g22
S'\x00\x00\x00\x00\x00\x00\x00\x00'
p614
tp615
Rp616
sg28
Nsbasg17
Nsg28
I28
sba(idecision_tree
Node
p617
(dp618
g3
(lp619
sg17
g18
(g22
S'\x00\x00\x00\x00\x00\x00\x00\x00'
p620
tp621
Rp622
sg28
Nsbasg17
Nsg28
I25
sba(idecision_tree
Node
p623
(dp624
g3
(lp625
sg17
g18
(g22
S'\x00\x00\x00\x00\x00\x00\x00\x00'
p626
tp627
Rp628
sg28
Nsbasg17
Nsg28
I11
sba(idecision_tree
Node
p629
(dp630
g3
(lp631
sg17
g18
(g22
S'\x00\x00\x00\x00\x00\x00\x00\x00'
p632
tp633
Rp634
sg28
Nsbasg17
Nsg28
I8
sbasg17
Nsg28
I14
sbasg17
Nsg28
I3
sbasg17
Nsg28
I23
sba(idecision_tree
Node
p635
(dp636
g3
(lp637
(idecision_tree
Node
p638
(dp639
g3
(lp640
(idecision_tree
Node
p641
(dp642
g3
(lp643
(idecision_tree
Node
p644
(dp645
g3
(lp646
(idecision_tree
Node
p647
(dp648
g3
(lp649
(idecision_tree
Node
p650
(dp651
g3
(lp652
(idecision_tree
Node
p653
(dp654
g3
(lp655
(idecision_tree
Node
p656
(dp657
g3
(lp658
(idecision_tree
Node
p659
(dp660
g3
(lp661
(idecision_tree
Node
p662
(dp663
g3
(lp664
(idecision_tree
Node
p665
(dp666
g3
(lp667
(idecision_tree
Node
p668
(dp669
g3
(lp670
(idecision_tree
Node
p671
(dp672
g3
(lp673
(idecision_tree
Node
p674
(dp675
g3
(lp676
(idecision_tree
Node
p677
(dp678
g3
(lp679
(idecision_tree
Node
p680
(dp681
g3
(lp682
(idecision_tree
Node
p683
(dp684
g3
(lp685
(idecision_tree
Node
p686
(dp687
g3
(lp688
(idecision_tree
Node
p689
(dp690
g3
(lp691
sg17
g18
(g22
S'\x00\x00\x00\x00\x00\x00\x00\x00'
p692
tp693
Rp694
sg28
Nsba(idecision_tree
Node
p695
(dp696
g3
(lp697
sg17
g18
(g22
S'\x01\x00\x00\x00\x00\x00\x00\x00'
p698
tp699
Rp700
sg28
Nsbasg17
Nsg28
I29
sba(idecision_tree
Node
p701
(dp702
g3
(lp703
sg17
g18
(g22
S'\x01\x00\x00\x00\x00\x00\x00\x00'
p704
tp705
Rp706
sg28
Nsbasg17
Nsg28
I28
sba(idecision_tree
Node
p707
(dp708
g3
(lp709
sg17
g18
(g22
S'\x01\x00\x00\x00\x00\x00\x00\x00'
p710
tp711
Rp712
sg28
Nsbasg17
Nsg28
I6
sba(idecision_tree
Node
p713
(dp714
g3
(lp715
sg17
g18
(g22
S'\x01\x00\x00\x00\x00\x00\x00\x00'
p716
tp717
Rp718
sg28
Nsbasg17
Nsg28
I23
sba(idecision_tree
Node
p719
(dp720
g3
(lp721
sg17
g18
(g22
S'\x00\x00\x00\x00\x00\x00\x00\x00'
p722
tp723
Rp724
sg28
Nsbasg17
Nsg28
I40
sba(idecision_tree
Node
p725
(dp726
g3
(lp727
sg17
g18
(g22
S'\x01\x00\x00\x00\x00\x00\x00\x00'
p728
tp729
Rp730
sg28
Nsbasg17
Nsg28
I21
sba(idecision_tree
Node
p731
(dp732
g3
(lp733
(idecision_tree
Node
p734
(dp735
g3
(lp736
sg17
g18
(g22
S'\x01\x00\x00\x00\x00\x00\x00\x00'
p737
tp738
Rp739
sg28
Nsba(idecision_tree
Node
p740
(dp741
g3
(lp742
sg17
g18
(g22
S'\x00\x00\x00\x00\x00\x00\x00\x00'
p743
tp744
Rp745
sg28
Nsbasg17
Nsg28
I2
sbasg17
Nsg28
I7
sba(idecision_tree
Node
p746
(dp747
g3
(lp748
sg17
g18
(g22
S'\x01\x00\x00\x00\x00\x00\x00\x00'
p749
tp750
Rp751
sg28
Nsbasg17
Nsg28
I42
sba(idecision_tree
Node
p752
(dp753
g3
(lp754
sg17
g18
(g22
S'\x00\x00\x00\x00\x00\x00\x00\x00'
p755
tp756
Rp757
sg28
Nsbasg17
Nsg28
I9
sba(idecision_tree
Node
p758
(dp759
g3
(lp760
sg17
g18
(g22
S'\x00\x00\x00\x00\x00\x00\x00\x00'
p761
tp762
Rp763
sg28
Nsbasg17
Nsg28
I30
sba(idecision_tree
Node
p764
(dp765
g3
(lp766
sg17
g18
(g22
S'\x00\x00\x00\x00\x00\x00\x00\x00'
p767
tp768
Rp769
sg28
Nsbasg17
Nsg28
I44
sba(idecision_tree
Node
p770
(dp771
g3
(lp772
(idecision_tree
Node
p773
(dp774
g3
(lp775
(idecision_tree
Node
p776
(dp777
g3
(lp778
(idecision_tree
Node
p779
(dp780
g3
(lp781
sg17
g18
(g22
S'\x01\x00\x00\x00\x00\x00\x00\x00'
p782
tp783
Rp784
sg28
Nsba(idecision_tree
Node
p785
(dp786
g3
(lp787
sg17
g18
(g22
S'\x00\x00\x00\x00\x00\x00\x00\x00'
p788
tp789
Rp790
sg28
Nsbasg17
Nsg28
I23
sba(idecision_tree
Node
p791
(dp792
g3
(lp793
(idecision_tree
Node
p794
(dp795
g3
(lp796
sg17
g18
(g22
S'\x00\x00\x00\x00\x00\x00\x00\x00'
p797
tp798
Rp799
sg28
Nsba(idecision_tree
Node
p800
(dp801
g3
(lp802
sg17
g18
(g22
S'\x01\x00\x00\x00\x00\x00\x00\x00'
p803
tp804
Rp805
sg28
Nsbasg17
Nsg28
I18
sbasg17
Nsg28
I24
sba(idecision_tree
Node
p806
(dp807
g3
(lp808
sg17
g18
(g22
S'\x01\x00\x00\x00\x00\x00\x00\x00'
p809
tp810
Rp811
sg28
Nsbasg17
Nsg28
I10
sbasg17
Nsg28
I19
sba(idecision_tree
Node
p812
(dp813
g3
(lp814
sg17
g18
(g22
S'\x00\x00\x00\x00\x00\x00\x00\x00'
p815
tp816
Rp817
sg28
Nsbasg17
Nsg28
I27
sba(idecision_tree
Node
p818
(dp819
g3
(lp820
(idecision_tree
Node
p821
(dp822
g3
(lp823
sg17
g18
(g22
S'\x00\x00\x00\x00\x00\x00\x00\x00'
p824
tp825
Rp826
sg28
Nsba(idecision_tree
Node
p827
(dp828
g3
(lp829
(idecision_tree
Node
p830
(dp831
g3
(lp832
sg17
g18
(g22
S'\x00\x00\x00\x00\x00\x00\x00\x00'
p833
tp834
Rp835
sg28
Nsba(idecision_tree
Node
p836
(dp837
g3
(lp838
sg17
g18
(g22
S'\x01\x00\x00\x00\x00\x00\x00\x00'
p839
tp840
Rp841
sg28
Nsbasg17
Nsg28
I13
sbasg17
Nsg28
I43
sbasg17
Nsg28
I0
sba(idecision_tree
Node
p842
(dp843
g3
(lp844
(idecision_tree
Node
p845
(dp846
g3
(lp847
(idecision_tree
Node
p848
(dp849
g3
(lp850
(idecision_tree
Node
p851
(dp852
g3
(lp853
(idecision_tree
Node
p854
(dp855
g3
(lp856
sg17
g18
(g22
S'\x00\x00\x00\x00\x00\x00\x00\x00'
p857
tp858
Rp859
sg28
Nsba(idecision_tree
Node
p860
(dp861
g3
(lp862
(idecision_tree
Node
p863
(dp864
g3
(lp865
sg17
g18
(g22
S'\x00\x00\x00\x00\x00\x00\x00\x00'
p866
tp867
Rp868
sg28
Nsba(idecision_tree
Node
p869
(dp870
g3
(lp871
(idecision_tree
Node
p872
(dp873
g3
(lp874
sg17
g18
(g22
S'\x01\x00\x00\x00\x00\x00\x00\x00'
p875
tp876
Rp877
sg28
Nsba(idecision_tree
Node
p878
(dp879
g3
(lp880
sg17
g18
(g22
S'\x00\x00\x00\x00\x00\x00\x00\x00'
p881
tp882
Rp883
sg28
Nsbasg17
Nsg28
I7
sbasg17
Nsg28
I38
sbasg17
Nsg28
I33
sba(idecision_tree
Node
p884
(dp885
g3
(lp886
(idecision_tree
Node
p887
(dp888
g3
(lp889
sg17
g18
(g22
S'\x00\x00\x00\x00\x00\x00\x00\x00'
p890
tp891
Rp892
sg28
Nsba(idecision_tree
Node
p893
(dp894
g3
(lp895
(idecision_tree
Node
p896
(dp897
g3
(lp898
(idecision_tree
Node
p899
(dp900
g3
(lp901
sg17
g18
(g22
S'\x01\x00\x00\x00\x00\x00\x00\x00'
p902
tp903
Rp904
sg28
Nsba(idecision_tree
Node
p905
(dp906
g3
(lp907
sg17
g18
(g22
S'\x00\x00\x00\x00\x00\x00\x00\x00'
p908
tp909
Rp910
sg28
Nsbasg17
Nsg28
I29
sba(idecision_tree
Node
p911
(dp912
g3
(lp913
sg17
g18
(g22
S'\x00\x00\x00\x00\x00\x00\x00\x00'
p914
tp915
Rp916
sg28
Nsbasg17
Nsg28
I44
sbasg17
Nsg28
I7
sbasg17
Nsg28
I5
sba(idecision_tree
Node
p917
(dp918
g3
(lp919
(idecision_tree
Node
p920
(dp921
g3
(lp922
(idecision_tree
Node
p923
(dp924
g3
(lp925
sg17
g18
(g22
S'\x00\x00\x00\x00\x00\x00\x00\x00'
p926
tp927
Rp928
sg28
Nsba(idecision_tree
Node
p929
(dp930
g3
(lp931
(idecision_tree
Node
p932
(dp933
g3
(lp934
sg17
g18
(g22
S'\x01\x00\x00\x00\x00\x00\x00\x00'
p935
tp936
Rp937
sg28
Nsba(idecision_tree
Node
p938
(dp939
g3
(lp940
sg17
g18
(g22
S'\x00\x00\x00\x00\x00\x00\x00\x00'
p941
tp942
Rp943
sg28
Nsbasg17
Nsg28
I5
sbasg17
Nsg28
I14
sba(idecision_tree
Node
p944
(dp945
g3
(lp946
sg17
g18
(g22
S'\x01\x00\x00\x00\x00\x00\x00\x00'
p947
tp948
Rp949
sg28
Nsbasg17
Nsg28
I39
sbasg17
Nsg28
I12
sba(idecision_tree
Node
p950
(dp951
g3
(lp952
sg17
g18
(g22
S'\x00\x00\x00\x00\x00\x00\x00\x00'
p953
tp954
Rp955
sg28
Nsbasg17
Nsg28
I0
sbasg17
Nsg28
I3
sba(idecision_tree
Node
p956
(dp957
g3
(lp958
(idecision_tree
Node
p959
(dp960
g3
(lp961
sg17
g18
(g22
S'\x00\x00\x00\x00\x00\x00\x00\x00'
p962
tp963
Rp964
sg28
Nsba(idecision_tree
Node
p965
(dp966
g3
(lp967
(idecision_tree
Node
p968
(dp969
g3
(lp970
sg17
g18
(g22
S'\x00\x00\x00\x00\x00\x00\x00\x00'
p971
tp972
Rp973
sg28
Nsba(idecision_tree
Node
p974
(dp975
g3
(lp976
(idecision_tree
Node
p977
(dp978
g3
(lp979
sg17
g18
(g22
S'\x00\x00\x00\x00\x00\x00\x00\x00'
p980
tp981
Rp982
sg28
Nsba(idecision_tree
Node
p983
(dp984
g3
(lp985
sg17
g18
(g22
S'\x01\x00\x00\x00\x00\x00\x00\x00'
p986
tp987
Rp988
sg28
Nsbasg17
Nsg28
I16
sbasg17
Nsg28
I6
sbasg17
Nsg28
I30
sbasg17
Nsg28
I11
sba(idecision_tree
Node
p989
(dp990
g3
(lp991
sg17
g18
(g22
S'\x00\x00\x00\x00\x00\x00\x00\x00'
p992
tp993
Rp994
sg28
Nsbasg17
Nsg28
I1
sba(idecision_tree
Node
p995
(dp996
g3
(lp997
(idecision_tree
Node
p998
(dp999
g3
(lp1000
(idecision_tree
Node
p1001
(dp1002
g3
(lp1003
(idecision_tree
Node
p1004
(dp1005
g3
(lp1006
(idecision_tree
Node
p1007
(dp1008
g3
(lp1009
(idecision_tree
Node
p1010
(dp1011
g3
(lp1012
(idecision_tree
Node
p1013
(dp1014
g3
(lp1015
(idecision_tree
Node
p1016
(dp1017
g3
(lp1018
sg17
g18
(g22
S'\x01\x00\x00\x00\x00\x00\x00\x00'
p1019
tp1020
Rp1021
sg28
Nsba(idecision_tree
Node
p1022
(dp1023
g3
(lp1024
(idecision_tree
Node
p1025
(dp1026
g3
(lp1027
sg17
g18
(g22
S'\x01\x00\x00\x00\x00\x00\x00\x00'
p1028
tp1029
Rp1030
sg28
Nsba(idecision_tree
Node
p1031
(dp1032
g3
(lp1033
(idecision_tree
Node
p1034
(dp1035
g3
(lp1036
sg17
g18
(g22
S'\x01\x00\x00\x00\x00\x00\x00\x00'
p1037
tp1038
Rp1039
sg28
Nsba(idecision_tree
Node
p1040
(dp1041
g3
(lp1042
sg17
g18
(g22
S'\x00\x00\x00\x00\x00\x00\x00\x00'
p1043
tp1044
Rp1045
sg28
Nsbasg17
Nsg28
I28
sbasg17
Nsg28
I9
sbasg17
Nsg28
I36
sba(idecision_tree
Node
p1046
(dp1047
g3
(lp1048
(idecision_tree
Node
p1049
(dp1050
g3
(lp1051
(idecision_tree
Node
p1052
(dp1053
g3
(lp1054
sg17
g18
(g22
S'\x00\x00\x00\x00\x00\x00\x00\x00'
p1055
tp1056
Rp1057
sg28
Nsba(idecision_tree
Node
p1058
(dp1059
g3
(lp1060
sg17
g18
(g22
S'\x01\x00\x00\x00\x00\x00\x00\x00'
p1061
tp1062
Rp1063
sg28
Nsbasg17
Nsg28
I0
sba(idecision_tree
Node
p1064
(dp1065
g3
(lp1066
sg17
g18
(g22
S'\x01\x00\x00\x00\x00\x00\x00\x00'
p1067
tp1068
Rp1069
sg28
Nsbasg17
Nsg28
I16
sbasg17
Nsg28
I38
sba(idecision_tree
Node
p1070
(dp1071
g3
(lp1072
(idecision_tree
Node
p1073
(dp1074
g3
(lp1075
sg17
g18
(g22
S'\x01\x00\x00\x00\x00\x00\x00\x00'
p1076
tp1077
Rp1078
sg28
Nsba(idecision_tree
Node
p1079
(dp1080
g3
(lp1081
(idecision_tree
Node
p1082
(dp1083
g3
(lp1084
sg17
g18
(g22
S'\x00\x00\x00\x00\x00\x00\x00\x00'
p1085
tp1086
Rp1087
sg28
Nsba(idecision_tree
Node
p1088
(dp1089
g3
(lp1090
sg17
g18
(g22
S'\x01\x00\x00\x00\x00\x00\x00\x00'
p1091
tp1092
Rp1093
sg28
Nsbasg17
Nsg28
I7
sbasg17
Nsg28
I26
sbasg17
Nsg28
I22
sba(idecision_tree
Node
p1094
(dp1095
g3
(lp1096
(idecision_tree
Node
p1097
(dp1098
g3
(lp1099
(idecision_tree
Node
p1100
(dp1101
g3
(lp1102
sg17
g18
(g22
S'\x01\x00\x00\x00\x00\x00\x00\x00'
p1103
tp1104
Rp1105
sg28
Nsba(idecision_tree
Node
p1106
(dp1107
g3
(lp1108
(idecision_tree
Node
p1109
(dp1110
g3
(lp1111
sg17
g18
(g22
S'\x00\x00\x00\x00\x00\x00\x00\x00'
p1112
tp1113
Rp1114
sg28
Nsba(idecision_tree
Node
p1115
(dp1116
g3
(lp1117
sg17
g18
(g22
S'\x01\x00\x00\x00\x00\x00\x00\x00'
p1118
tp1119
Rp1120
sg28
Nsbasg17
Nsg28
I0
sbasg17
Nsg28
I37
sba(idecision_tree
Node
p1121
(dp1122
g3
(lp1123
(idecision_tree
Node
p1124
(dp1125
g3
(lp1126
sg17
g18
(g22
S'\x00\x00\x00\x00\x00\x00\x00\x00'
p1127
tp1128
Rp1129
sg28
Nsba(idecision_tree
Node
p1130
(dp1131
g3
(lp1132
sg17
g18
(g22
S'\x01\x00\x00\x00\x00\x00\x00\x00'
p1133
tp1134
Rp1135
sg28
Nsbasg17
Nsg28
I6
sbasg17
Nsg28
I11
sbasg17
Nsg28
I5
sba(idecision_tree
Node
p1136
(dp1137
g3
(lp1138
(idecision_tree
Node
p1139
(dp1140
g3
(lp1141
(idecision_tree
Node
p1142
(dp1143
g3
(lp1144
(idecision_tree
Node
p1145
(dp1146
g3
(lp1147
sg17
g18
(g22
S'\x00\x00\x00\x00\x00\x00\x00\x00'
p1148
tp1149
Rp1150
sg28
Nsba(idecision_tree
Node
p1151
(dp1152
g3
(lp1153
(idecision_tree
Node
p1154
(dp1155
g3
(lp1156
(idecision_tree
Node
p1157
(dp1158
g3
(lp1159
(idecision_tree
Node
p1160
(dp1161
g3
(lp1162
sg17
g18
(g22
S'\x01\x00\x00\x00\x00\x00\x00\x00'
p1163
tp1164
Rp1165
sg28
Nsba(idecision_tree
Node
p1166
(dp1167
g3
(lp1168
sg17
g18
(g22
S'\x00\x00\x00\x00\x00\x00\x00\x00'
p1169
tp1170
Rp1171
sg28
Nsbasg17
Nsg28
I44
sba(idecision_tree
Node
p1172
(dp1173
g3
(lp1174
sg17
g18
(g22
S'\x00\x00\x00\x00\x00\x00\x00\x00'
p1175
tp1176
Rp1177
sg28
Nsbasg17
Nsg28
I20
sba(idecision_tree
Node
p1178
(dp1179
g3
(lp1180
sg17
g18
(g22
S'\x00\x00\x00\x00\x00\x00\x00\x00'
p1181
tp1182
Rp1183
sg28
Nsbasg17
Nsg28
I22
sbasg17
Nsg28
I16
sba(idecision_tree
Node
p1184
(dp1185
g3
(lp1186
sg17
g18
(g22
S'\x01\x00\x00\x00\x00\x00\x00\x00'
p1187
tp1188
Rp1189
sg28
Nsbasg17
Nsg28
I6
sba(idecision_tree
Node
p1190
(dp1191
g3
(lp1192
sg17
g18
(g22
S'\x01\x00\x00\x00\x00\x00\x00\x00'
p1193
tp1194
Rp1195
sg28
Nsbasg17
Nsg28
I31
sbasg17
Nsg28
I1
sba(idecision_tree
Node
p1196
(dp1197
g3
(lp1198
(idecision_tree
Node
p1199
(dp1200
g3
(lp1201
(idecision_tree
Node
p1202
(dp1203
g3
(lp1204
(idecision_tree
Node
p1205
(dp1206
g3
(lp1207
(idecision_tree
Node
p1208
(dp1209
g3
(lp1210
(idecision_tree
Node
p1211
(dp1212
g3
(lp1213
sg17
g18
(g22
S'\x01\x00\x00\x00\x00\x00\x00\x00'
p1214
tp1215
Rp1216
sg28
Nsba(idecision_tree
Node
p1217
(dp1218
g3
(lp1219
(idecision_tree
Node
p1220
(dp1221
g3
(lp1222
sg17
g18
(g22
S'\x01\x00\x00\x00\x00\x00\x00\x00'
p1223
tp1224
Rp1225
sg28
Nsba(idecision_tree
Node
p1226
(dp1227
g3
(lp1228
sg17
g18
(g22
S'\x00\x00\x00\x00\x00\x00\x00\x00'
p1229
tp1230
Rp1231
sg28
Nsbasg17
Nsg28
I43
sbasg17
Nsg28
I4
sba(idecision_tree
Node
p1232
(dp1233
g3
(lp1234
(idecision_tree
Node
p1235
(dp1236
g3
(lp1237
sg17
g18
(g22
S'\x00\x00\x00\x00\x00\x00\x00\x00'
p1238
tp1239
Rp1240
sg28
Nsba(idecision_tree
Node
p1241
(dp1242
g3
(lp1243
sg17
g18
(g22
S'\x01\x00\x00\x00\x00\x00\x00\x00'
p1244
tp1245
Rp1246
sg28
Nsbasg17
Nsg28
I26
sbasg17
Nsg28
I29
sba(idecision_tree
Node
p1247
(dp1248
g3
(lp1249
(idecision_tree
Node
p1250
(dp1251
g3
(lp1252
sg17
g18
(g22
S'\x00\x00\x00\x00\x00\x00\x00\x00'
p1253
tp1254
Rp1255
sg28
Nsba(idecision_tree
Node
p1256
(dp1257
g3
(lp1258
sg17
g18
(g22
S'\x01\x00\x00\x00\x00\x00\x00\x00'
p1259
tp1260
Rp1261
sg28
Nsbasg17
Nsg28
I29
sbasg17
Nsg28
I6
sba(idecision_tree
Node
p1262
(dp1263
g3
(lp1264
(idecision_tree
Node
p1265
(dp1266
g3
(lp1267
sg17
g18
(g22
S'\x00\x00\x00\x00\x00\x00\x00\x00'
p1268
tp1269
Rp1270
sg28
Nsba(idecision_tree
Node
p1271
(dp1272
g3
(lp1273
sg17
g18
(g22
S'\x01\x00\x00\x00\x00\x00\x00\x00'
p1274
tp1275
Rp1276
sg28
Nsbasg17
Nsg28
I37
sbasg17
Nsg28
I0
sba(idecision_tree
Node
p1277
(dp1278
g3
(lp1279
sg17
g18
(g22
S'\x00\x00\x00\x00\x00\x00\x00\x00'
p1280
tp1281
Rp1282
sg28
Nsbasg17
Nsg28
I11
sbasg17
Nsg28
I3
sba(idecision_tree
Node
p1283
(dp1284
g3
(lp1285
(idecision_tree
Node
p1286
(dp1287
g3
(lp1288
(idecision_tree
Node
p1289
(dp1290
g3
(lp1291
(idecision_tree
Node
p1292
(dp1293
g3
(lp1294
(idecision_tree
Node
p1295
(dp1296
g3
(lp1297
(idecision_tree
Node
p1298
(dp1299
g3
(lp1300
(idecision_tree
Node
p1301
(dp1302
g3
(lp1303
sg17
g18
(g22
S'\x00\x00\x00\x00\x00\x00\x00\x00'
p1304
tp1305
Rp1306
sg28
Nsba(idecision_tree
Node
p1307
(dp1308
g3
(lp1309
sg17
g18
(g22
S'\x01\x00\x00\x00\x00\x00\x00\x00'
p1310
tp1311
Rp1312
sg28
Nsbasg17
Nsg28
I33
sba(idecision_tree
Node
p1313
(dp1314
g3
(lp1315
sg17
g18
(g22
S'\x01\x00\x00\x00\x00\x00\x00\x00'
p1316
tp1317
Rp1318
sg28
Nsbasg17
Nsg28
I16
sba(idecision_tree
Node
p1319
(dp1320
g3
(lp1321
sg17
g18
(g22
S'\x01\x00\x00\x00\x00\x00\x00\x00'
p1322
tp1323
Rp1324
sg28
Nsbasg17
Nsg28
I9
sba(idecision_tree
Node
p1325
(dp1326
g3
(lp1327
(idecision_tree
Node
p1328
(dp1329
g3
(lp1330
(idecision_tree
Node
p1331
(dp1332
g3
(lp1333
sg17
g18
(g22
S'\x01\x00\x00\x00\x00\x00\x00\x00'
p1334
tp1335
Rp1336
sg28
Nsba(idecision_tree
Node
p1337
(dp1338
g3
(lp1339
sg17
g18
(g22
S'\x00\x00\x00\x00\x00\x00\x00\x00'
p1340
tp1341
Rp1342
sg28
Nsbasg17
Nsg28
I1
sba(idecision_tree
Node
p1343
(dp1344
g3
(lp1345
sg17
g18
(g22
S'\x00\x00\x00\x00\x00\x00\x00\x00'
p1346
tp1347
Rp1348
sg28
Nsbasg17
Nsg28
I19
sbasg17
Nsg28
I3
sba(idecision_tree
Node
p1349
(dp1350
g3
(lp1351
sg17
g18
(g22
S'\x00\x00\x00\x00\x00\x00\x00\x00'
p1352
tp1353
Rp1354
sg28
Nsbasg17
Nsg28
I4
sba(idecision_tree
Node
p1355
(dp1356
g3
(lp1357
sg17
g18
(g22
S'\x00\x00\x00\x00\x00\x00\x00\x00'
p1358
tp1359
Rp1360
sg28
Nsbasg17
Nsg28
I11
sbasg17
Nsg28
I24
sbasg17
Nsg28
I8
sba(idecision_tree
Node
p1361
(dp1362
g3
(lp1363
(idecision_tree
Node
p1364
(dp1365
g3
(lp1366
(idecision_tree
Node
p1367
(dp1368
g3
(lp1369
(idecision_tree
Node
p1370
(dp1371
g3
(lp1372
(idecision_tree
Node
p1373
(dp1374
g3
(lp1375
sg17
g18
(g22
S'\x00\x00\x00\x00\x00\x00\x00\x00'
p1376
tp1377
Rp1378
sg28
Nsba(idecision_tree
Node
p1379
(dp1380
g3
(lp1381
(idecision_tree
Node
p1382
(dp1383
g3
(lp1384
(idecision_tree
Node
p1385
(dp1386
g3
(lp1387
(idecision_tree
Node
p1388
(dp1389
g3
(lp1390
(idecision_tree
Node
p1391
(dp1392
g3
(lp1393
(idecision_tree
Node
p1394
(dp1395
g3
(lp1396
sg17
g18
(g22
S'\x01\x00\x00\x00\x00\x00\x00\x00'
p1397
tp1398
Rp1399
sg28
Nsba(idecision_tree
Node
p1400
(dp1401
g3
(lp1402
sg17
g18
(g22
S'\x00\x00\x00\x00\x00\x00\x00\x00'
p1403
tp1404
Rp1405
sg28
Nsbasg17
Nsg28
I9
sba(idecision_tree
Node
p1406
(dp1407
g3
(lp1408
sg17
g18
(g22
S'\x00\x00\x00\x00\x00\x00\x00\x00'
p1409
tp1410
Rp1411
sg28
Nsbasg17
Nsg28
I0
sba(idecision_tree
Node
p1412
(dp1413
g3
(lp1414
sg17
g18
(g22
S'\x00\x00\x00\x00\x00\x00\x00\x00'
p1415
tp1416
Rp1417
sg28
Nsbasg17
Nsg28
I5
sba(idecision_tree
Node
p1418
(dp1419
g3
(lp1420
sg17
g18
(g22
S'\x00\x00\x00\x00\x00\x00\x00\x00'
p1421
tp1422
Rp1423
sg28
Nsbasg17
Nsg28
I44
sba(idecision_tree
Node
p1424
(dp1425
g3
(lp1426
sg17
g18
(g22
S'\x00\x00\x00\x00\x00\x00\x00\x00'
p1427
tp1428
Rp1429
sg28
Nsbasg17
Nsg28
I23
sbasg17
Nsg28
I3
sba(idecision_tree
Node
p1430
(dp1431
g3
(lp1432
sg17
g18
(g22
S'\x00\x00\x00\x00\x00\x00\x00\x00'
p1433
tp1434
Rp1435
sg28
Nsbasg17
Nsg28
I16
sba(idecision_tree
Node
p1436
(dp1437
g3
(lp1438
(idecision_tree
Node
p1439
(dp1440
g3
(lp1441
(idecision_tree
Node
p1442
(dp1443
g3
(lp1444
sg17
g18
(g22
S'\x00\x00\x00\x00\x00\x00\x00\x00'
p1445
tp1446
Rp1447
sg28
Nsba(idecision_tree
Node
p1448
(dp1449
g3
(lp1450
(idecision_tree
Node
p1451
(dp1452
g3
(lp1453
(idecision_tree
Node
p1454
(dp1455
g3
(lp1456
(idecision_tree
Node
p1457
(dp1458
g3
(lp1459
sg17
g18
(g22
S'\x00\x00\x00\x00\x00\x00\x00\x00'
p1460
tp1461
Rp1462
sg28
Nsba(idecision_tree
Node
p1463
(dp1464
g3
(lp1465
(idecision_tree
Node
p1466
(dp1467
g3
(lp1468
(idecision_tree
Node
p1469
(dp1470
g3
(lp1471
sg17
g18
(g22
S'\x01\x00\x00\x00\x00\x00\x00\x00'
p1472
tp1473
Rp1474
sg28
Nsba(idecision_tree
Node
p1475
(dp1476
g3
(lp1477
(idecision_tree
Node
p1478
(dp1479
g3
(lp1480
sg17
g18
(g22
S'\x00\x00\x00\x00\x00\x00\x00\x00'
p1481
tp1482
Rp1483
sg28
Nsba(idecision_tree
Node
p1484
(dp1485
g3
(lp1486
(idecision_tree
Node
p1487
(dp1488
g3
(lp1489
sg17
g18
(g22
S'\x01\x00\x00\x00\x00\x00\x00\x00'
p1490
tp1491
Rp1492
sg28
Nsba(idecision_tree
Node
p1493
(dp1494
g3
(lp1495
sg17
g18
(g22
S'\x00\x00\x00\x00\x00\x00\x00\x00'
p1496
tp1497
Rp1498
sg28
Nsbasg17
Nsg28
I10
sbasg17
Nsg28
I16
sbasg17
Nsg28
I1
sba(idecision_tree
Node
p1499
(dp1500
g3
(lp1501
sg17
g18
(g22
S'\x01\x00\x00\x00\x00\x00\x00\x00'
p1502
tp1503
Rp1504
sg28
Nsbasg17
Nsg28
I20
sbasg17
Nsg28
I0
sba(idecision_tree
Node
p1505
(dp1506
g3
(lp1507
sg17
g18
(g22
S'\x00\x00\x00\x00\x00\x00\x00\x00'
p1508
tp1509
Rp1510
sg28
Nsbasg17
Nsg28
I25
sba(idecision_tree
Node
p1511
(dp1512
g3
(lp1513
sg17
g18
(g22
S'\x00\x00\x00\x00\x00\x00\x00\x00'
p1514
tp1515
Rp1516
sg28
Nsbasg17
Nsg28
I26
sbasg17
Nsg28
I4
sba(idecision_tree
Node
p1517
(dp1518
g3
(lp1519
(idecision_tree
Node
p1520
(dp1521
g3
(lp1522
(idecision_tree
Node
p1523
(dp1524
g3
(lp1525
sg17
g18
(g22
S'\x00\x00\x00\x00\x00\x00\x00\x00'
p1526
tp1527
Rp1528
sg28
Nsba(idecision_tree
Node
p1529
(dp1530
g3
(lp1531
(idecision_tree
Node
p1532
(dp1533
g3
(lp1534
(idecision_tree
Node
p1535
(dp1536
g3
(lp1537
sg17
g18
(g22
S'\x00\x00\x00\x00\x00\x00\x00\x00'
p1538
tp1539
Rp1540
sg28
Nsba(idecision_tree
Node
p1541
(dp1542
g3
(lp1543
sg17
g18
(g22
S'\x01\x00\x00\x00\x00\x00\x00\x00'
p1544
tp1545
Rp1546
sg28
Nsbasg17
Nsg28
I8
sba(idecision_tree
Node
p1547
(dp1548
g3
(lp1549
sg17
g18
(g22
S'\x01\x00\x00\x00\x00\x00\x00\x00'
p1550
tp1551
Rp1552
sg28
Nsbasg17
Nsg28
I6
sbasg17
Nsg28
I12
sba(idecision_tree
Node
p1553
(dp1554
g3
(lp1555
(idecision_tree
Node
p1556
(dp1557
g3
(lp1558
(idecision_tree
Node
p1559
(dp1560
g3
(lp1561
(idecision_tree
Node
p1562
(dp1563
g3
(lp1564
sg17
g18
(g22
S'\x01\x00\x00\x00\x00\x00\x00\x00'
p1565
tp1566
Rp1567
sg28
Nsba(idecision_tree
Node
p1568
(dp1569
g3
(lp1570
sg17
g18
(g22
S'\x00\x00\x00\x00\x00\x00\x00\x00'
p1571
tp1572
Rp1573
sg28
Nsbasg17
Nsg28
I7
sba(idecision_tree
Node
p1574
(dp1575
g3
(lp1576
sg17
g18
(g22
S'\x00\x00\x00\x00\x00\x00\x00\x00'
p1577
tp1578
Rp1579
sg28
Nsbasg17
Nsg28
I25
sba(idecision_tree
Node
p1580
(dp1581
g3
(lp1582
sg17
g18
(g22
S'\x00\x00\x00\x00\x00\x00\x00\x00'
p1583
tp1584
Rp1585
sg28
Nsbasg17
Nsg28
I26
sbasg17
Nsg28
I1
sbasg17
Nsg28
I3
sbasg17
Nsg28
I24
sba(idecision_tree
Node
p1586
(dp1587
g3
(lp1588
(idecision_tree
Node
p1589
(dp1590
g3
(lp1591
(idecision_tree
Node
p1592
(dp1593
g3
(lp1594
(idecision_tree
Node
p1595
(dp1596
g3
(lp1597
sg17
g18
(g22
S'\x00\x00\x00\x00\x00\x00\x00\x00'
p1598
tp1599
Rp1600
sg28
Nsba(idecision_tree
Node
p1601
(dp1602
g3
(lp1603
(idecision_tree
Node
p1604
(dp1605
g3
(lp1606
(idecision_tree
Node
p1607
(dp1608
g3
(lp1609
sg17
g18
(g22
S'\x00\x00\x00\x00\x00\x00\x00\x00'
p1610
tp1611
Rp1612
sg28
Nsba(idecision_tree
Node
p1613
(dp1614
g3
(lp1615
sg17
g18
(g22
S'\x01\x00\x00\x00\x00\x00\x00\x00'
p1616
tp1617
Rp1618
sg28
Nsbasg17
Nsg28
I26
sba(idecision_tree
Node
p1619
(dp1620
g3
(lp1621
sg17
g18
(g22
S'\x01\x00\x00\x00\x00\x00\x00\x00'
p1622
tp1623
Rp1624
sg28
Nsbasg17
Nsg28
I1
sbasg17
Nsg28
I3
sba(idecision_tree
Node
p1625
(dp1626
g3
(lp1627
(idecision_tree
Node
p1628
(dp1629
g3
(lp1630
(idecision_tree
Node
p1631
(dp1632
g3
(lp1633
(idecision_tree
Node
p1634
(dp1635
g3
(lp1636
sg17
g18
(g22
S'\x00\x00\x00\x00\x00\x00\x00\x00'
p1637
tp1638
Rp1639
sg28
Nsba(idecision_tree
Node
p1640
(dp1641
g3
(lp1642
sg17
g18
(g22
S'\x01\x00\x00\x00\x00\x00\x00\x00'
p1643
tp1644
Rp1645
sg28
Nsbasg17
Nsg28
I10
sba(idecision_tree
Node
p1646
(dp1647
g3
(lp1648
(idecision_tree
Node
p1649
(dp1650
g3
(lp1651
(idecision_tree
Node
p1652
(dp1653
g3
(lp1654
sg17
g18
(g22
S'\x00\x00\x00\x00\x00\x00\x00\x00'
p1655
tp1656
Rp1657
sg28
Nsba(idecision_tree
Node
p1658
(dp1659
g3
(lp1660
sg17
g18
(g22
S'\x01\x00\x00\x00\x00\x00\x00\x00'
p1661
tp1662
Rp1663
sg28
Nsbasg17
Nsg28
I31
sba(idecision_tree
Node
p1664
(dp1665
g3
(lp1666
sg17
g18
(g22
S'\x01\x00\x00\x00\x00\x00\x00\x00'
p1667
tp1668
Rp1669
sg28
Nsbasg17
Nsg28
I14
sbasg17
Nsg28
I32
sba(idecision_tree
Node
p1670
(dp1671
g3
(lp1672
(idecision_tree
Node
p1673
(dp1674
g3
(lp1675
(idecision_tree
Node
p1676
(dp1677
g3
(lp1678
sg17
g18
(g22
S'\x01\x00\x00\x00\x00\x00\x00\x00'
p1679
tp1680
Rp1681
sg28
Nsba(idecision_tree
Node
p1682
(dp1683
g3
(lp1684
sg17
g18
(g22
S'\x00\x00\x00\x00\x00\x00\x00\x00'
p1685
tp1686
Rp1687
sg28
Nsbasg17
Nsg28
I6
sba(idecision_tree
Node
p1688
(dp1689
g3
(lp1690
(idecision_tree
Node
p1691
(dp1692
g3
(lp1693
sg17
g18
(g22
S'\x00\x00\x00\x00\x00\x00\x00\x00'
p1694
tp1695
Rp1696
sg28
Nsba(idecision_tree
Node
p1697
(dp1698
g3
(lp1699
sg17
g18
(g22
S'\x01\x00\x00\x00\x00\x00\x00\x00'
p1700
tp1701
Rp1702
sg28
Nsbasg17
Nsg28
I21
sbasg17
Nsg28
I22
sbasg17
Nsg28
I3
sbasg17
Nsg28
I4
sba(idecision_tree
Node
p1703
(dp1704
g3
(lp1705
(idecision_tree
Node
p1706
(dp1707
g3
(lp1708
(idecision_tree
Node
p1709
(dp1710
g3
(lp1711
(idecision_tree
Node
p1712
(dp1713
g3
(lp1714
(idecision_tree
Node
p1715
(dp1716
g3
(lp1717
(idecision_tree
Node
p1718
(dp1719
g3
(lp1720
sg17
g18
(g22
S'\x00\x00\x00\x00\x00\x00\x00\x00'
p1721
tp1722
Rp1723
sg28
Nsba(idecision_tree
Node
p1724
(dp1725
g3
(lp1726
sg17
g18
(g22
S'\x01\x00\x00\x00\x00\x00\x00\x00'
p1727
tp1728
Rp1729
sg28
Nsbasg17
Nsg28
I20
sba(idecision_tree
Node
p1730
(dp1731
g3
(lp1732
(idecision_tree
Node
p1733
(dp1734
g3
(lp1735
(idecision_tree
Node
p1736
(dp1737
g3
(lp1738
sg17
g18
(g22
S'\x01\x00\x00\x00\x00\x00\x00\x00'
p1739
tp1740
Rp1741
sg28
Nsba(idecision_tree
Node
p1742
(dp1743
g3
(lp1744
sg17
g18
(g22
S'\x00\x00\x00\x00\x00\x00\x00\x00'
p1745
tp1746
Rp1747
sg28
Nsbasg17
Nsg28
I27
sba(idecision_tree
Node
p1748
(dp1749
g3
(lp1750
(idecision_tree
Node
p1751
(dp1752
g3
(lp1753
sg17
g18
(g22
S'\x00\x00\x00\x00\x00\x00\x00\x00'
p1754
tp1755
Rp1756
sg28
Nsba(idecision_tree
Node
p1757
(dp1758
g3
(lp1759
sg17
g18
(g22
S'\x01\x00\x00\x00\x00\x00\x00\x00'
p1760
tp1761
Rp1762
sg28
Nsbasg17
Nsg28
I3
sbasg17
Nsg28
I7
sbasg17
Nsg28
I24
sba(idecision_tree
Node
p1763
(dp1764
g3
(lp1765
sg17
g18
(g22
S'\x01\x00\x00\x00\x00\x00\x00\x00'
p1766
tp1767
Rp1768
sg28
Nsbasg17
Nsg28
I1
sba(idecision_tree
Node
p1769
(dp1770
g3
(lp1771
(idecision_tree
Node
p1772
(dp1773
g3
(lp1774
(idecision_tree
Node
p1775
(dp1776
g3
(lp1777
sg17
g18
(g22
S'\x00\x00\x00\x00\x00\x00\x00\x00'
p1778
tp1779
Rp1780
sg28
Nsba(idecision_tree
Node
p1781
(dp1782
g3
(lp1783
(idecision_tree
Node
p1784
(dp1785
g3
(lp1786
sg17
g18
(g22
S'\x01\x00\x00\x00\x00\x00\x00\x00'
p1787
tp1788
Rp1789
sg28
Nsba(idecision_tree
Node
p1790
(dp1791
g3
(lp1792
sg17
g18
(g22
S'\x00\x00\x00\x00\x00\x00\x00\x00'
p1793
tp1794
Rp1795
sg28
Nsbasg17
Nsg28
I9
sbasg17
Nsg28
I39
sba(idecision_tree
Node
p1796
(dp1797
g3
(lp1798
(idecision_tree
Node
p1799
(dp1800
g3
(lp1801
sg17
g18
(g22
S'\x01\x00\x00\x00\x00\x00\x00\x00'
p1802
tp1803
Rp1804
sg28
Nsba(idecision_tree
Node
p1805
(dp1806
g3
(lp1807
sg17
g18
(g22
S'\x00\x00\x00\x00\x00\x00\x00\x00'
p1808
tp1809
Rp1810
sg28
Nsbasg17
Nsg28
I4
sbasg17
Nsg28
I14
sbasg17
Nsg28
I25
sba(idecision_tree
Node
p1811
(dp1812
g3
(lp1813
(idecision_tree
Node
p1814
(dp1815
g3
(lp1816
(idecision_tree
Node
p1817
(dp1818
g3
(lp1819
(idecision_tree
Node
p1820
(dp1821
g3
(lp1822
(idecision_tree
Node
p1823
(dp1824
g3
(lp1825
(idecision_tree
Node
p1826
(dp1827
g3
(lp1828
(idecision_tree
Node
p1829
(dp1830
g3
(lp1831
sg17
g18
(g22
S'\x00\x00\x00\x00\x00\x00\x00\x00'
p1832
tp1833
Rp1834
sg28
Nsba(idecision_tree
Node
p1835
(dp1836
g3
(lp1837
(idecision_tree
Node
p1838
(dp1839
g3
(lp1840
sg17
g18
(g22
S'\x01\x00\x00\x00\x00\x00\x00\x00'
p1841
tp1842
Rp1843
sg28
Nsba(idecision_tree
Node
p1844
(dp1845
g3
(lp1846
sg17
g18
(g22
S'\x00\x00\x00\x00\x00\x00\x00\x00'
p1847
tp1848
Rp1849
sg28
Nsbasg17
Nsg28
I7
sbasg17
Nsg28
I3
sba(idecision_tree
Node
p1850
(dp1851
g3
(lp1852
(idecision_tree
Node
p1853
(dp1854
g3
(lp1855
(idecision_tree
Node
p1856
(dp1857
g3
(lp1858
sg17
g18
(g22
S'\x00\x00\x00\x00\x00\x00\x00\x00'
p1859
tp1860
Rp1861
sg28
Nsba(idecision_tree
Node
p1862
(dp1863
g3
(lp1864
sg17
g18
(g22
S'\x01\x00\x00\x00\x00\x00\x00\x00'
p1865
tp1866
Rp1867
sg28
Nsbasg17
Nsg28
I4
sba(idecision_tree
Node
p1868
(dp1869
g3
(lp1870
sg17
g18
(g22
S'\x01\x00\x00\x00\x00\x00\x00\x00'
p1871
tp1872
Rp1873
sg28
Nsbasg17
Nsg28
I1
sbasg17
Nsg28
I15
sba(idecision_tree
Node
p1874
(dp1875
g3
(lp1876
sg17
g18
(g22
S'\x01\x00\x00\x00\x00\x00\x00\x00'
p1877
tp1878
Rp1879
sg28
Nsbasg17
Nsg28
I14
sba(idecision_tree
Node
p1880
(dp1881
g3
(lp1882
sg17
g18
(g22
S'\x00\x00\x00\x00\x00\x00\x00\x00'
p1883
tp1884
Rp1885
sg28
Nsbasg17
Nsg28
I33
sba(idecision_tree
Node
p1886
(dp1887
g3
(lp1888
sg17
g18
(g22
S'\x00\x00\x00\x00\x00\x00\x00\x00'
p1889
tp1890
Rp1891
sg28
Nsbasg17
Nsg28
I29
sba(idecision_tree
Node
p1892
(dp1893
g3
(lp1894
sg17
g18
(g22
S'\x00\x00\x00\x00\x00\x00\x00\x00'
p1895
tp1896
Rp1897
sg28
Nsbasg17
Nsg28
I23
sbasg17
Nsg28
I26
sbasg17
Nsg28
I0
sbasg17
Nsg28
I19
sba(idecision_tree
Node
p1898
(dp1899
g3
(lp1900
(idecision_tree
Node
p1901
(dp1902
g3
(lp1903
(idecision_tree
Node
p1904
(dp1905
g3
(lp1906
(idecision_tree
Node
p1907
(dp1908
g3
(lp1909
(idecision_tree
Node
p1910
(dp1911
g3
(lp1912
(idecision_tree
Node
p1913
(dp1914
g3
(lp1915
sg17
g18
(g22
S'\x00\x00\x00\x00\x00\x00\x00\x00'
p1916
tp1917
Rp1918
sg28
Nsba(idecision_tree
Node
p1919
(dp1920
g3
(lp1921
(idecision_tree
Node
p1922
(dp1923
g3
(lp1924
sg17
g18
(g22
S'\x00\x00\x00\x00\x00\x00\x00\x00'
p1925
tp1926
Rp1927
sg28
Nsba(idecision_tree
Node
p1928
(dp1929
g3
(lp1930
(idecision_tree
Node
p1931
(dp1932
g3
(lp1933
sg17
g18
(g22
S'\x00\x00\x00\x00\x00\x00\x00\x00'
p1934
tp1935
Rp1936
sg28
Nsba(idecision_tree
Node
p1937
(dp1938
g3
(lp1939
sg17
g18
(g22
S'\x01\x00\x00\x00\x00\x00\x00\x00'
p1940
tp1941
Rp1942
sg28
Nsbasg17
Nsg28
I1
sbasg17
Nsg28
I13
sbasg17
Nsg28
I39
sba(idecision_tree
Node
p1943
(dp1944
g3
(lp1945
(idecision_tree
Node
p1946
(dp1947
g3
(lp1948
sg17
g18
(g22
S'\x00\x00\x00\x00\x00\x00\x00\x00'
p1949
tp1950
Rp1951
sg28
Nsba(idecision_tree
Node
p1952
(dp1953
g3
(lp1954
(idecision_tree
Node
p1955
(dp1956
g3
(lp1957
sg17
g18
(g22
S'\x00\x00\x00\x00\x00\x00\x00\x00'
p1958
tp1959
Rp1960
sg28
Nsba(idecision_tree
Node
p1961
(dp1962
g3
(lp1963
(idecision_tree
Node
p1964
(dp1965
g3
(lp1966
sg17
g18
(g22
S'\x01\x00\x00\x00\x00\x00\x00\x00'
p1967
tp1968
Rp1969
sg28
Nsba(idecision_tree
Node
p1970
(dp1971
g3
(lp1972
sg17
g18
(g22
S'\x00\x00\x00\x00\x00\x00\x00\x00'
p1973
tp1974
Rp1975
sg28
Nsbasg17
Nsg28
I2
sbasg17
Nsg28
I9
sbasg17
Nsg28
I28
sbasg17
Nsg28
I36
sba(idecision_tree
Node
p1976
(dp1977
g3
(lp1978
sg17
g18
(g22
S'\x00\x00\x00\x00\x00\x00\x00\x00'
p1979
tp1980
Rp1981
sg28
Nsbasg17
Nsg28
I0
sba(idecision_tree
Node
p1982
(dp1983
g3
(lp1984
(idecision_tree
Node
p1985
(dp1986
g3
(lp1987
(idecision_tree
Node
p1988
(dp1989
g3
(lp1990
(idecision_tree
Node
p1991
(dp1992
g3
(lp1993
(idecision_tree
Node
p1994
(dp1995
g3
(lp1996
(idecision_tree
Node
p1997
(dp1998
g3
(lp1999
(idecision_tree
Node
p2000
(dp2001
g3
(lp2002
(idecision_tree
Node
p2003
(dp2004
g3
(lp2005
(idecision_tree
Node
p2006
(dp2007
g3
(lp2008
(idecision_tree
Node
p2009
(dp2010
g3
(lp2011
sg17
g18
(g22
S'\x01\x00\x00\x00\x00\x00\x00\x00'
p2012
tp2013
Rp2014
sg28
Nsba(idecision_tree
Node
p2015
(dp2016
g3
(lp2017
sg17
g18
(g22
S'\x00\x00\x00\x00\x00\x00\x00\x00'
p2018
tp2019
Rp2020
sg28
Nsbasg17
Nsg28
I6
sba(idecision_tree
Node
p2021
(dp2022
g3
(lp2023
sg17
g18
(g22
S'\x00\x00\x00\x00\x00\x00\x00\x00'
p2024
tp2025
Rp2026
sg28
Nsbasg17
Nsg28
I9
sba(idecision_tree
Node
p2027
(dp2028
g3
(lp2029
(idecision_tree
Node
p2030
(dp2031
g3
(lp2032
sg17
g18
(g22
S'\x01\x00\x00\x00\x00\x00\x00\x00'
p2033
tp2034
Rp2035
sg28
Nsba(idecision_tree
Node
p2036
(dp2037
g3
(lp2038
sg17
g18
(g22
S'\x00\x00\x00\x00\x00\x00\x00\x00'
p2039
tp2040
Rp2041
sg28
Nsbasg17
Nsg28
I28
sbasg17
Nsg28
I24
sba(idecision_tree
Node
p2042
(dp2043
g3
(lp2044
sg17
g18
(g22
S'\x00\x00\x00\x00\x00\x00\x00\x00'
p2045
tp2046
Rp2047
sg28
Nsbasg17
Nsg28
I23
sba(idecision_tree
Node
p2048
(dp2049
g3
(lp2050
(idecision_tree
Node
p2051
(dp2052
g3
(lp2053
sg17
g18
(g22
S'\x00\x00\x00\x00\x00\x00\x00\x00'
p2054
tp2055
Rp2056
sg28
Nsba(idecision_tree
Node
p2057
(dp2058
g3
(lp2059
sg17
g18
(g22
S'\x01\x00\x00\x00\x00\x00\x00\x00'
p2060
tp2061
Rp2062
sg28
Nsbasg17
Nsg28
I9
sbasg17
Nsg28
I19
sba(idecision_tree
Node
p2063
(dp2064
g3
(lp2065
sg17
g18
(g22
S'\x01\x00\x00\x00\x00\x00\x00\x00'
p2066
tp2067
Rp2068
sg28
Nsbasg17
Nsg28
I33
sba(idecision_tree
Node
p2069
(dp2070
g3
(lp2071
sg17
g18
(g22
S'\x00\x00\x00\x00\x00\x00\x00\x00'
p2072
tp2073
Rp2074
sg28
Nsbasg17
Nsg28
I26
sba(idecision_tree
Node
p2075
(dp2076
g3
(lp2077
(idecision_tree
Node
p2078
(dp2079
g3
(lp2080
sg17
g18
(g22
S'\x00\x00\x00\x00\x00\x00\x00\x00'
p2081
tp2082
Rp2083
sg28
Nsba(idecision_tree
Node
p2084
(dp2085
g3
(lp2086
(idecision_tree
Node
p2087
(dp2088
g3
(lp2089
sg17
g18
(g22
S'\x01\x00\x00\x00\x00\x00\x00\x00'
p2090
tp2091
Rp2092
sg28
Nsba(idecision_tree
Node
p2093
(dp2094
g3
(lp2095
sg17
g18
(g22
S'\x00\x00\x00\x00\x00\x00\x00\x00'
p2096
tp2097
Rp2098
sg28
Nsbasg17
Nsg28
I0
sbasg17
Nsg28
I31
sbasg17
Nsg28
I1
sba(idecision_tree
Node
p2099
(dp2100
g3
(lp2101
(idecision_tree
Node
p2102
(dp2103
g3
(lp2104
sg17
g18
(g22
S'\x00\x00\x00\x00\x00\x00\x00\x00'
p2105
tp2106
Rp2107
sg28
Nsba(idecision_tree
Node
p2108
(dp2109
g3
(lp2110
(idecision_tree
Node
p2111
(dp2112
g3
(lp2113
(idecision_tree
Node
p2114
(dp2115
g3
(lp2116
sg17
g18
(g22
S'\x01\x00\x00\x00\x00\x00\x00\x00'
p2117
tp2118
Rp2119
sg28
Nsba(idecision_tree
Node
p2120
(dp2121
g3
(lp2122
sg17
g18
(g22
S'\x00\x00\x00\x00\x00\x00\x00\x00'
p2123
tp2124
Rp2125
sg28
Nsbasg17
Nsg28
I0
sba(idecision_tree
Node
p2126
(dp2127
g3
(lp2128
sg17
g18
(g22
S'\x00\x00\x00\x00\x00\x00\x00\x00'
p2129
tp2130
Rp2131
sg28
Nsbasg17
Nsg28
I44
sbasg17
Nsg28
I37
sbasg17
Nsg28
I16
sbasg17
Nsg28
I5
sba(idecision_tree
Node
p2132
(dp2133
g3
(lp2134
(idecision_tree
Node
p2135
(dp2136
g3
(lp2137
(idecision_tree
Node
p2138
(dp2139
g3
(lp2140
(idecision_tree
Node
p2141
(dp2142
g3
(lp2143
(idecision_tree
Node
p2144
(dp2145
g3
(lp2146
(idecision_tree
Node
p2147
(dp2148
g3
(lp2149
(idecision_tree
Node
p2150
(dp2151
g3
(lp2152
(idecision_tree
Node
p2153
(dp2154
g3
(lp2155
(idecision_tree
Node
p2156
(dp2157
g3
(lp2158
(idecision_tree
Node
p2159
(dp2160
g3
(lp2161
sg17
g18
(g22
S'\x01\x00\x00\x00\x00\x00\x00\x00'
p2162
tp2163
Rp2164
sg28
Nsba(idecision_tree
Node
p2165
(dp2166
g3
(lp2167
sg17
g18
(g22
S'\x00\x00\x00\x00\x00\x00\x00\x00'
p2168
tp2169
Rp2170
sg28
Nsbasg17
Nsg28
I18
sba(idecision_tree
Node
p2171
(dp2172
g3
(lp2173
sg17
g18
(g22
S'\x00\x00\x00\x00\x00\x00\x00\x00'
p2174
tp2175
Rp2176
sg28
Nsbasg17
Nsg28
I3
sba(idecision_tree
Node
p2177
(dp2178
g3
(lp2179
sg17
g18
(g22
S'\x00\x00\x00\x00\x00\x00\x00\x00'
p2180
tp2181
Rp2182
sg28
Nsbasg17
Nsg28
I8
sba(idecision_tree
Node
p2183
(dp2184
g3
(lp2185
(idecision_tree
Node
p2186
(dp2187
g3
(lp2188
sg17
g18
(g22
S'\x01\x00\x00\x00\x00\x00\x00\x00'
p2189
tp2190
Rp2191
sg28
Nsba(idecision_tree
Node
p2192
(dp2193
g3
(lp2194
(idecision_tree
Node
p2195
(dp2196
g3
(lp2197
sg17
g18
(g22
S'\x00\x00\x00\x00\x00\x00\x00\x00'
p2198
tp2199
Rp2200
sg28
Nsba(idecision_tree
Node
p2201
(dp2202
g3
(lp2203
sg17
g18
(g22
S'\x01\x00\x00\x00\x00\x00\x00\x00'
p2204
tp2205
Rp2206
sg28
Nsbasg17
Nsg28
I37
sbasg17
Nsg28
I6
sbasg17
Nsg28
I24
sba(idecision_tree
Node
p2207
(dp2208
g3
(lp2209
(idecision_tree
Node
p2210
(dp2211
g3
(lp2212
sg17
g18
(g22
S'\x00\x00\x00\x00\x00\x00\x00\x00'
p2213
tp2214
Rp2215
sg28
Nsba(idecision_tree
Node
p2216
(dp2217
g3
(lp2218
sg17
g18
(g22
S'\x01\x00\x00\x00\x00\x00\x00\x00'
p2219
tp2220
Rp2221
sg28
Nsbasg17
Nsg28
I20
sbasg17
Nsg28
I4
sba(idecision_tree
Node
p2222
(dp2223
g3
(lp2224
sg17
g18
(g22
S'\x01\x00\x00\x00\x00\x00\x00\x00'
p2225
tp2226
Rp2227
sg28
Nsbasg17
Nsg28
I21
sba(idecision_tree
Node
p2228
(dp2229
g3
(lp2230
(idecision_tree
Node
p2231
(dp2232
g3
(lp2233
sg17
g18
(g22
S'\x00\x00\x00\x00\x00\x00\x00\x00'
p2234
tp2235
Rp2236
sg28
Nsba(idecision_tree
Node
p2237
(dp2238
g3
(lp2239
(idecision_tree
Node
p2240
(dp2241
g3
(lp2242
sg17
g18
(g22
S'\x00\x00\x00\x00\x00\x00\x00\x00'
p2243
tp2244
Rp2245
sg28
Nsba(idecision_tree
Node
p2246
(dp2247
g3
(lp2248
sg17
g18
(g22
S'\x01\x00\x00\x00\x00\x00\x00\x00'
p2249
tp2250
Rp2251
sg28
Nsbasg17
Nsg28
I31
sbasg17
Nsg28
I24
sbasg17
Nsg28
I16
sba(idecision_tree
Node
p2252
(dp2253
g3
(lp2254
(idecision_tree
Node
p2255
(dp2256
g3
(lp2257
sg17
g18
(g22
S'\x00\x00\x00\x00\x00\x00\x00\x00'
p2258
tp2259
Rp2260
sg28
Nsba(idecision_tree
Node
p2261
(dp2262
g3
(lp2263
(idecision_tree
Node
p2264
(dp2265
g3
(lp2266
sg17
g18
(g22
S'\x01\x00\x00\x00\x00\x00\x00\x00'
p2267
tp2268
Rp2269
sg28
Nsba(idecision_tree
Node
p2270
(dp2271
g3
(lp2272
sg17
g18
(g22
S'\x00\x00\x00\x00\x00\x00\x00\x00'
p2273
tp2274
Rp2275
sg28
Nsbasg17
Nsg28
I4
sbasg17
Nsg28
I32
sbasg17
Nsg28
I0
sba(idecision_tree
Node
p2276
(dp2277
g3
(lp2278
(idecision_tree
Node
p2279
(dp2280
g3
(lp2281
(idecision_tree
Node
p2282
(dp2283
g3
(lp2284
(idecision_tree
Node
p2285
(dp2286
g3
(lp2287
(idecision_tree
Node
p2288
(dp2289
g3
(lp2290
sg17
g18
(g22
S'\x01\x00\x00\x00\x00\x00\x00\x00'
p2291
tp2292
Rp2293
sg28
Nsba(idecision_tree
Node
p2294
(dp2295
g3
(lp2296
(idecision_tree
Node
p2297
(dp2298
g3
(lp2299
sg17
g18
(g22
S'\x01\x00\x00\x00\x00\x00\x00\x00'
p2300
tp2301
Rp2302
sg28
Nsba(idecision_tree
Node
p2303
(dp2304
g3
(lp2305
sg17
g18
(g22
S'\x00\x00\x00\x00\x00\x00\x00\x00'
p2306
tp2307
Rp2308
sg28
Nsbasg17
Nsg28
I8
sbasg17
Nsg28
I38
sba(idecision_tree
Node
p2309
(dp2310
g3
(lp2311
(idecision_tree
Node
p2312
(dp2313
g3
(lp2314
(idecision_tree
Node
p2315
(dp2316
g3
(lp2317
sg17
g18
(g22
S'\x01\x00\x00\x00\x00\x00\x00\x00'
p2318
tp2319
Rp2320
sg28
Nsba(idecision_tree
Node
p2321
(dp2322
g3
(lp2323
sg17
g18
(g22
S'\x00\x00\x00\x00\x00\x00\x00\x00'
p2324
tp2325
Rp2326
sg28
Nsbasg17
Nsg28
I10
sba(idecision_tree
Node
p2327
(dp2328
g3
(lp2329
sg17
g18
(g22
S'\x00\x00\x00\x00\x00\x00\x00\x00'
p2330
tp2331
Rp2332
sg28
Nsbasg17
Nsg28
I0
sbasg17
Nsg28
I3
sba(idecision_tree
Node
p2333
(dp2334
g3
(lp2335
(idecision_tree
Node
p2336
(dp2337
g3
(lp2338
sg17
g18
(g22
S'\x00\x00\x00\x00\x00\x00\x00\x00'
p2339
tp2340
Rp2341
sg28
Nsba(idecision_tree
Node
p2342
(dp2343
g3
(lp2344
sg17
g18
(g22
S'\x01\x00\x00\x00\x00\x00\x00\x00'
p2345
tp2346
Rp2347
sg28
Nsbasg17
Nsg28
I20
sbasg17
Nsg28
I36
sba(idecision_tree
Node
p2348
(dp2349
g3
(lp2350
(idecision_tree
Node
p2351
(dp2352
g3
(lp2353
sg17
g18
(g22
S'\x01\x00\x00\x00\x00\x00\x00\x00'
p2354
tp2355
Rp2356
sg28
Nsba(idecision_tree
Node
p2357
(dp2358
g3
(lp2359
(idecision_tree
Node
p2360
(dp2361
g3
(lp2362
sg17
g18
(g22
S'\x01\x00\x00\x00\x00\x00\x00\x00'
p2363
tp2364
Rp2365
sg28
Nsba(idecision_tree
Node
p2366
(dp2367
g3
(lp2368
sg17
g18
(g22
S'\x00\x00\x00\x00\x00\x00\x00\x00'
p2369
tp2370
Rp2371
sg28
Nsbasg17
Nsg28
I1
sbasg17
Nsg28
I0
sbasg17
Nsg28
I24
sbasg17
Nsg28
I5
sbasg17
Nsg28
I11
sba(idecision_tree
Node
p2372
(dp2373
g3
(lp2374
(idecision_tree
Node
p2375
(dp2376
g3
(lp2377
(idecision_tree
Node
p2378
(dp2379
g3
(lp2380
(idecision_tree
Node
p2381
(dp2382
g3
(lp2383
(idecision_tree
Node
p2384
(dp2385
g3
(lp2386
(idecision_tree
Node
p2387
(dp2388
g3
(lp2389
(idecision_tree
Node
p2390
(dp2391
g3
(lp2392
(idecision_tree
Node
p2393
(dp2394
g3
(lp2395
sg17
g18
(g22
S'\x00\x00\x00\x00\x00\x00\x00\x00'
p2396
tp2397
Rp2398
sg28
Nsba(idecision_tree
Node
p2399
(dp2400
g3
(lp2401
sg17
g18
(g22
S'\x01\x00\x00\x00\x00\x00\x00\x00'
p2402
tp2403
Rp2404
sg28
Nsbasg17
Nsg28
I18
sba(idecision_tree
Node
p2405
(dp2406
g3
(lp2407
(idecision_tree
Node
p2408
(dp2409
g3
(lp2410
sg17
g18
(g22
S'\x00\x00\x00\x00\x00\x00\x00\x00'
p2411
tp2412
Rp2413
sg28
Nsba(idecision_tree
Node
p2414
(dp2415
g3
(lp2416
(idecision_tree
Node
p2417
(dp2418
g3
(lp2419
(idecision_tree
Node
p2420
(dp2421
g3
(lp2422
sg17
g18
(g22
S'\x00\x00\x00\x00\x00\x00\x00\x00'
p2423
tp2424
Rp2425
sg28
Nsba(idecision_tree
Node
p2426
(dp2427
g3
(lp2428
sg17
g18
(g22
S'\x01\x00\x00\x00\x00\x00\x00\x00'
p2429
tp2430
Rp2431
sg28
Nsbasg17
Nsg28
I6
sba(idecision_tree
Node
p2432
(dp2433
g3
(lp2434
sg17
g18
(g22
S'\x01\x00\x00\x00\x00\x00\x00\x00'
p2435
tp2436
Rp2437
sg28
Nsbasg17
Nsg28
I44
sbasg17
Nsg28
I0
sbasg17
Nsg28
I3
sba(idecision_tree
Node
p2438
(dp2439
g3
(lp2440
(idecision_tree
Node
p2441
(dp2442
g3
(lp2443
(idecision_tree
Node
p2444
(dp2445
g3
(lp2446
sg17
g18
(g22
S'\x01\x00\x00\x00\x00\x00\x00\x00'
p2447
tp2448
Rp2449
sg28
Nsba(idecision_tree
Node
p2450
(dp2451
g3
(lp2452
sg17
g18
(g22
S'\x00\x00\x00\x00\x00\x00\x00\x00'
p2453
tp2454
Rp2455
sg28
Nsbasg17
Nsg28
I19
sba(idecision_tree
Node
p2456
(dp2457
g3
(lp2458
(idecision_tree
Node
p2459
(dp2460
g3
(lp2461
sg17
g18
(g22
S'\x00\x00\x00\x00\x00\x00\x00\x00'
p2462
tp2463
Rp2464
sg28
Nsba(idecision_tree
Node
p2465
(dp2466
g3
(lp2467
sg17
g18
(g22
S'\x01\x00\x00\x00\x00\x00\x00\x00'
p2468
tp2469
Rp2470
sg28
Nsbasg17
Nsg28
I3
sbasg17
Nsg28
I5
sbasg17
Nsg28
I14
sba(idecision_tree
Node
p2471
(dp2472
g3
(lp2473
(idecision_tree
Node
p2474
(dp2475
g3
(lp2476
(idecision_tree
Node
p2477
(dp2478
g3
(lp2479
(idecision_tree
Node
p2480
(dp2481
g3
(lp2482
(idecision_tree
Node
p2483
(dp2484
g3
(lp2485
(idecision_tree
Node
p2486
(dp2487
g3
(lp2488
(idecision_tree
Node
p2489
(dp2490
g3
(lp2491
(idecision_tree
Node
p2492
(dp2493
g3
(lp2494
(idecision_tree
Node
p2495
(dp2496
g3
(lp2497
sg17
g18
(g22
S'\x01\x00\x00\x00\x00\x00\x00\x00'
p2498
tp2499
Rp2500
sg28
Nsba(idecision_tree
Node
p2501
(dp2502
g3
(lp2503
(idecision_tree
Node
p2504
(dp2505
g3
(lp2506
sg17
g18
(g22
S'\x01\x00\x00\x00\x00\x00\x00\x00'
p2507
tp2508
Rp2509
sg28
Nsba(idecision_tree
Node
p2510
(dp2511
g3
(lp2512
(idecision_tree
Node
p2513
(dp2514
g3
(lp2515
sg17
I0
sg28
Nsba(idecision_tree
Node
p2516
(dp2517
g3
(lp2518
sg17
g18
(g22
S'\x01\x00\x00\x00\x00\x00\x00\x00'
p2519
tp2520
Rp2521
sg28
Nsbasg17
Nsg28
I1
sbasg17
Nsg28
I0
sbasg17
Nsg28
I38
sba(idecision_tree
Node
p2522
(dp2523
g3
(lp2524
sg17
g18
(g22
S'\x00\x00\x00\x00\x00\x00\x00\x00'
p2525
tp2526
Rp2527
sg28
Nsbasg17
Nsg28
I4
sba(idecision_tree
Node
p2528
(dp2529
g3
(lp2530
(idecision_tree
Node
p2531
(dp2532
g3
(lp2533
sg17
g18
(g22
S'\x00\x00\x00\x00\x00\x00\x00\x00'
p2534
tp2535
Rp2536
sg28
Nsba(idecision_tree
Node
p2537
(dp2538
g3
(lp2539
sg17
g18
(g22
S'\x01\x00\x00\x00\x00\x00\x00\x00'
p2540
tp2541
Rp2542
sg28
Nsbasg17
Nsg28
I3
sbasg17
Nsg28
I11
sba(idecision_tree
Node
p2543
(dp2544
g3
(lp2545
sg17
g18
(g22
S'\x00\x00\x00\x00\x00\x00\x00\x00'
p2546
tp2547
Rp2548
sg28
Nsbasg17
Nsg28
I43
sba(idecision_tree
Node
p2549
(dp2550
g3
(lp2551
(idecision_tree
Node
p2552
(dp2553
g3
(lp2554
(idecision_tree
Node
p2555
(dp2556
g3
(lp2557
sg17
g18
(g22
S'\x00\x00\x00\x00\x00\x00\x00\x00'
p2558
tp2559
Rp2560
sg28
Nsba(idecision_tree
Node
p2561
(dp2562
g3
(lp2563
(idecision_tree
Node
p2564
(dp2565
g3
(lp2566
sg17
g18
(g22
S'\x00\x00\x00\x00\x00\x00\x00\x00'
p2567
tp2568
Rp2569
sg28
Nsba(idecision_tree
Node
p2570
(dp2571
g3
(lp2572
sg17
g18
(g22
S'\x01\x00\x00\x00\x00\x00\x00\x00'
p2573
tp2574
Rp2575
sg28
Nsbasg17
Nsg28
I14
sbasg17
Nsg28
I29
sba(idecision_tree
Node
p2576
(dp2577
g3
(lp2578
sg17
g18
(g22
S'\x01\x00\x00\x00\x00\x00\x00\x00'
p2579
tp2580
Rp2581
sg28
Nsbasg17
Nsg28
I32
sbasg17
Nsg28
I19
sba(idecision_tree
Node
p2582
(dp2583
g3
(lp2584
(idecision_tree
Node
p2585
(dp2586
g3
(lp2587
(idecision_tree
Node
p2588
(dp2589
g3
(lp2590
(idecision_tree
Node
p2591
(dp2592
g3
(lp2593
(idecision_tree
Node
p2594
(dp2595
g3
(lp2596
sg17
g18
(g22
S'\x00\x00\x00\x00\x00\x00\x00\x00'
p2597
tp2598
Rp2599
sg28
Nsba(idecision_tree
Node
p2600
(dp2601
g3
(lp2602
sg17
g18
(g22
S'\x01\x00\x00\x00\x00\x00\x00\x00'
p2603
tp2604
Rp2605
sg28
Nsbasg17
Nsg28
I28
sba(idecision_tree
Node
p2606
(dp2607
g3
(lp2608
sg17
g18
(g22
S'\x01\x00\x00\x00\x00\x00\x00\x00'
p2609
tp2610
Rp2611
sg28
Nsbasg17
Nsg28
I0
sba(idecision_tree
Node
p2612
(dp2613
g3
(lp2614
sg17
g18
(g22
S'\x00\x00\x00\x00\x00\x00\x00\x00'
p2615
tp2616
Rp2617
sg28
Nsbasg17
Nsg28
I3
sba(idecision_tree
Node
p2618
(dp2619
g3
(lp2620
sg17
g18
(g22
S'\x01\x00\x00\x00\x00\x00\x00\x00'
p2621
tp2622
Rp2623
sg28
Nsbasg17
Nsg28
I9
sbasg17
Nsg28
I7
sba(idecision_tree
Node
p2624
(dp2625
g3
(lp2626
(idecision_tree
Node
p2627
(dp2628
g3
(lp2629
sg17
g18
(g22
S'\x01\x00\x00\x00\x00\x00\x00\x00'
p2630
tp2631
Rp2632
sg28
Nsba(idecision_tree
Node
p2633
(dp2634
g3
(lp2635
(idecision_tree
Node
p2636
(dp2637
g3
(lp2638
sg17
g18
(g22
S'\x01\x00\x00\x00\x00\x00\x00\x00'
p2639
tp2640
Rp2641
sg28
Nsba(idecision_tree
Node
p2642
(dp2643
g3
(lp2644
sg17
g18
(g22
S'\x00\x00\x00\x00\x00\x00\x00\x00'
p2645
tp2646
Rp2647
sg28
Nsbasg17
Nsg28
I0
sbasg17
Nsg28
I36
sbasg17
Nsg28
I13
sba(idecision_tree
Node
p2648
(dp2649
g3
(lp2650
(idecision_tree
Node
p2651
(dp2652
g3
(lp2653
(idecision_tree
Node
p2654
(dp2655
g3
(lp2656
(idecision_tree
Node
p2657
(dp2658
g3
(lp2659
sg17
g18
(g22
S'\x00\x00\x00\x00\x00\x00\x00\x00'
p2660
tp2661
Rp2662
sg28
Nsba(idecision_tree
Node
p2663
(dp2664
g3
(lp2665
(idecision_tree
Node
p2666
(dp2667
g3
(lp2668
sg17
g18
(g22
S'\x01\x00\x00\x00\x00\x00\x00\x00'
p2669
tp2670
Rp2671
sg28
Nsba(idecision_tree
Node
p2672
(dp2673
g3
(lp2674
sg17
g18
(g22
S'\x00\x00\x00\x00\x00\x00\x00\x00'
p2675
tp2676
Rp2677
sg28
Nsbasg17
Nsg28
I0
sbasg17
Nsg28
I33
sba(idecision_tree
Node
p2678
(dp2679
g3
(lp2680
sg17
g18
(g22
S'\x01\x00\x00\x00\x00\x00\x00\x00'
p2681
tp2682
Rp2683
sg28
Nsbasg17
Nsg28
I15
sba(idecision_tree
Node
p2684
(dp2685
g3
(lp2686
sg17
g18
(g22
S'\x01\x00\x00\x00\x00\x00\x00\x00'
p2687
tp2688
Rp2689
sg28
Nsbasg17
Nsg28
I31
sbasg17
Nsg28
I6
sbasg17
Nsg28
I16
sba(idecision_tree
Node
p2690
(dp2691
g3
(lp2692
(idecision_tree
Node
p2693
(dp2694
g3
(lp2695
(idecision_tree
Node
p2696
(dp2697
g3
(lp2698
(idecision_tree
Node
p2699
(dp2700
g3
(lp2701
(idecision_tree
Node
p2702
(dp2703
g3
(lp2704
(idecision_tree
Node
p2705
(dp2706
g3
(lp2707
(idecision_tree
Node
p2708
(dp2709
g3
(lp2710
(idecision_tree
Node
p2711
(dp2712
g3
(lp2713
(idecision_tree
Node
p2714
(dp2715
g3
(lp2716
sg17
g18
(g22
S'\x00\x00\x00\x00\x00\x00\x00\x00'
p2717
tp2718
Rp2719
sg28
Nsba(idecision_tree
Node
p2720
(dp2721
g3
(lp2722
sg17
g18
(g22
S'\x01\x00\x00\x00\x00\x00\x00\x00'
p2723
tp2724
Rp2725
sg28
Nsbasg17
Nsg28
I28
sba(idecision_tree
Node
p2726
(dp2727
g3
(lp2728
(idecision_tree
Node
p2729
(dp2730
g3
(lp2731
sg17
g18
(g22
S'\x00\x00\x00\x00\x00\x00\x00\x00'
p2732
tp2733
Rp2734
sg28
Nsba(idecision_tree
Node
p2735
(dp2736
g3
(lp2737
sg17
g18
(g22
S'\x01\x00\x00\x00\x00\x00\x00\x00'
p2738
tp2739
Rp2740
sg28
Nsbasg17
Nsg28
I0
sbasg17
Nsg28
I5
sba(idecision_tree
Node
p2741
(dp2742
g3
(lp2743
sg17
g18
(g22
S'\x00\x00\x00\x00\x00\x00\x00\x00'
p2744
tp2745
Rp2746
sg28
Nsbasg17
Nsg28
I4
sba(idecision_tree
Node
p2747
(dp2748
g3
(lp2749
sg17
g18
(g22
S'\x01\x00\x00\x00\x00\x00\x00\x00'
p2750
tp2751
Rp2752
sg28
Nsbasg17
Nsg28
I43
sba(idecision_tree
Node
p2753
(dp2754
g3
(lp2755
sg17
g18
(g22
S'\x00\x00\x00\x00\x00\x00\x00\x00'
p2756
tp2757
Rp2758
sg28
Nsbasg17
Nsg28
I25
sba(idecision_tree
Node
p2759
(dp2760
g3
(lp2761
(idecision_tree
Node
p2762
(dp2763
g3
(lp2764
sg17
g18
(g22
S'\x01\x00\x00\x00\x00\x00\x00\x00'
p2765
tp2766
Rp2767
sg28
Nsba(idecision_tree
Node
p2768
(dp2769
g3
(lp2770
sg17
g18
(g22
S'\x00\x00\x00\x00\x00\x00\x00\x00'
p2771
tp2772
Rp2773
sg28
Nsbasg17
Nsg28
I5
sbasg17
Nsg28
I32
sba(idecision_tree
Node
p2774
(dp2775
g3
(lp2776
sg17
g18
(g22
S'\x00\x00\x00\x00\x00\x00\x00\x00'
p2777
tp2778
Rp2779
sg28
Nsbasg17
Nsg28
I3
sba(idecision_tree
Node
p2780
(dp2781
g3
(lp2782
(idecision_tree
Node
p2783
(dp2784
g3
(lp2785
(idecision_tree
Node
p2786
(dp2787
g3
(lp2788
sg17
g18
(g22
S'\x00\x00\x00\x00\x00\x00\x00\x00'
p2789
tp2790
Rp2791
sg28
Nsba(idecision_tree
Node
p2792
(dp2793
g3
(lp2794
sg17
g18
(g22
S'\x01\x00\x00\x00\x00\x00\x00\x00'
p2795
tp2796
Rp2797
sg28
Nsbasg17
Nsg28
I39
sba(idecision_tree
Node
p2798
(dp2799
g3
(lp2800
(idecision_tree
Node
p2801
(dp2802
g3
(lp2803
sg17
g18
(g22
S'\x01\x00\x00\x00\x00\x00\x00\x00'
p2804
tp2805
Rp2806
sg28
Nsba(idecision_tree
Node
p2807
(dp2808
g3
(lp2809
sg17
g18
(g22
S'\x00\x00\x00\x00\x00\x00\x00\x00'
p2810
tp2811
Rp2812
sg28
Nsbasg17
Nsg28
I12
sbasg17
Nsg28
I44
sbasg17
Nsg28
I14
sbasg17
Nsg28
I23
sba(idecision_tree
Node
p2813
(dp2814
g3
(lp2815
(idecision_tree
Node
p2816
(dp2817
g3
(lp2818
(idecision_tree
Node
p2819
(dp2820
g3
(lp2821
(idecision_tree
Node
p2822
(dp2823
g3
(lp2824
sg17
g18
(g22
S'\x00\x00\x00\x00\x00\x00\x00\x00'
p2825
tp2826
Rp2827
sg28
Nsba(idecision_tree
Node
p2828
(dp2829
g3
(lp2830
(idecision_tree
Node
p2831
(dp2832
g3
(lp2833
sg17
g18
(g22
S'\x00\x00\x00\x00\x00\x00\x00\x00'
p2834
tp2835
Rp2836
sg28
Nsba(idecision_tree
Node
p2837
(dp2838
g3
(lp2839
(idecision_tree
Node
p2840
(dp2841
g3
(lp2842
sg17
g18
(g22
S'\x01\x00\x00\x00\x00\x00\x00\x00'
p2843
tp2844
Rp2845
sg28
Nsba(idecision_tree
Node
p2846
(dp2847
g3
(lp2848
sg17
g18
(g22
S'\x00\x00\x00\x00\x00\x00\x00\x00'
p2849
tp2850
Rp2851
sg28
Nsbasg17
Nsg28
I6
sbasg17
Nsg28
I3
sbasg17
Nsg28
I13
sba(idecision_tree
Node
p2852
(dp2853
g3
(lp2854
(idecision_tree
Node
p2855
(dp2856
g3
(lp2857
(idecision_tree
Node
p2858
(dp2859
g3
(lp2860
sg17
g18
(g22
S'\x00\x00\x00\x00\x00\x00\x00\x00'
p2861
tp2862
Rp2863
sg28
Nsba(idecision_tree
Node
p2864
(dp2865
g3
(lp2866
(idecision_tree
Node
p2867
(dp2868
g3
(lp2869
sg17
g18
(g22
S'\x01\x00\x00\x00\x00\x00\x00\x00'
p2870
tp2871
Rp2872
sg28
Nsba(idecision_tree
Node
p2873
(dp2874
g3
(lp2875
sg17
g18
(g22
S'\x00\x00\x00\x00\x00\x00\x00\x00'
p2876
tp2877
Rp2878
sg28
Nsbasg17
Nsg28
I23
sbasg17
Nsg28
I22
sba(idecision_tree
Node
p2879
(dp2880
g3
(lp2881
sg17
g18
(g22
S'\x01\x00\x00\x00\x00\x00\x00\x00'
p2882
tp2883
Rp2884
sg28
Nsbasg17
Nsg28
I33
sbasg17
Nsg28
I35
sba(idecision_tree
Node
p2885
(dp2886
g3
(lp2887
(idecision_tree
Node
p2888
(dp2889
g3
(lp2890
sg17
g18
(g22
S'\x00\x00\x00\x00\x00\x00\x00\x00'
p2891
tp2892
Rp2893
sg28
Nsba(idecision_tree
Node
p2894
(dp2895
g3
(lp2896
(idecision_tree
Node
p2897
(dp2898
g3
(lp2899
(idecision_tree
Node
p2900
(dp2901
g3
(lp2902
sg17
g18
(g22
S'\x00\x00\x00\x00\x00\x00\x00\x00'
p2903
tp2904
Rp2905
sg28
Nsba(idecision_tree
Node
p2906
(dp2907
g3
(lp2908
(idecision_tree
Node
p2909
(dp2910
g3
(lp2911
sg17
g18
(g22
S'\x01\x00\x00\x00\x00\x00\x00\x00'
p2912
tp2913
Rp2914
sg28
Nsba(idecision_tree
Node
p2915
(dp2916
g3
(lp2917
sg17
g18
(g22
S'\x00\x00\x00\x00\x00\x00\x00\x00'
p2918
tp2919
Rp2920
sg28
Nsbasg17
Nsg28
I23
sbasg17
Nsg28
I44
sba(idecision_tree
Node
p2921
(dp2922
g3
(lp2923
(idecision_tree
Node
p2924
(dp2925
g3
(lp2926
sg17
g18
(g22
S'\x00\x00\x00\x00\x00\x00\x00\x00'
p2927
tp2928
Rp2929
sg28
Nsba(idecision_tree
Node
p2930
(dp2931
g3
(lp2932
(idecision_tree
Node
p2933
(dp2934
g3
(lp2935
sg17
g18
(g22
S'\x01\x00\x00\x00\x00\x00\x00\x00'
p2936
tp2937
Rp2938
sg28
Nsba(idecision_tree
Node
p2939
(dp2940
g3
(lp2941
sg17
g18
(g22
S'\x00\x00\x00\x00\x00\x00\x00\x00'
p2942
tp2943
Rp2944
sg28
Nsbasg17
Nsg28
I6
sbasg17
Nsg28
I3
sbasg17
Nsg28
I0
sbasg17
Nsg28
I16
sbasg17
Nsg28
I14
sbasg17
Nsg28
I8
sba(idecision_tree
Node
p2945
(dp2946
g3
(lp2947
(idecision_tree
Node
p2948
(dp2949
g3
(lp2950
(idecision_tree
Node
p2951
(dp2952
g3
(lp2953
(idecision_tree
Node
p2954
(dp2955
g3
(lp2956
sg17
g18
(g22
S'\x00\x00\x00\x00\x00\x00\x00\x00'
p2957
tp2958
Rp2959
sg28
Nsba(idecision_tree
Node
p2960
(dp2961
g3
(lp2962
(idecision_tree
Node
p2963
(dp2964
g3
(lp2965
sg17
g18
(g22
S'\x00\x00\x00\x00\x00\x00\x00\x00'
p2966
tp2967
Rp2968
sg28
Nsba(idecision_tree
Node
p2969
(dp2970
g3
(lp2971
(idecision_tree
Node
p2972
(dp2973
g3
(lp2974
sg17
g18
(g22
S'\x00\x00\x00\x00\x00\x00\x00\x00'
p2975
tp2976
Rp2977
sg28
Nsba(idecision_tree
Node
p2978
(dp2979
g3
(lp2980
sg17
g18
(g22
S'\x01\x00\x00\x00\x00\x00\x00\x00'
p2981
tp2982
Rp2983
sg28
Nsbasg17
Nsg28
I0
sbasg17
Nsg28
I8
sbasg17
Nsg28
I20
sba(idecision_tree
Node
p2984
(dp2985
g3
(lp2986
(idecision_tree
Node
p2987
(dp2988
g3
(lp2989
(idecision_tree
Node
p2990
(dp2991
g3
(lp2992
sg17
g18
(g22
S'\x00\x00\x00\x00\x00\x00\x00\x00'
p2993
tp2994
Rp2995
sg28
Nsba(idecision_tree
Node
p2996
(dp2997
g3
(lp2998
(idecision_tree
Node
p2999
(dp3000
g3
(lp3001
(idecision_tree
Node
p3002
(dp3003
g3
(lp3004
sg17
g18
(g22
S'\x00\x00\x00\x00\x00\x00\x00\x00'
p3005
tp3006
Rp3007
sg28
Nsba(idecision_tree
Node
p3008
(dp3009
g3
(lp3010
sg17
g18
(g22
S'\x01\x00\x00\x00\x00\x00\x00\x00'
p3011
tp3012
Rp3013
sg28
Nsbasg17
Nsg28
I4
sba(idecision_tree
Node
p3014
(dp3015
g3
(lp3016
sg17
g18
(g22
S'\x00\x00\x00\x00\x00\x00\x00\x00'
p3017
tp3018
Rp3019
sg28
Nsbasg17
Nsg28
I1
sbasg17
Nsg28
I44
sba(idecision_tree
Node
p3020
(dp3021
g3
(lp3022
sg17
g18
(g22
S'\x01\x00\x00\x00\x00\x00\x00\x00'
p3023
tp3024
Rp3025
sg28
Nsbasg17
Nsg28
I43
sbasg17
Nsg28
I2
sba(idecision_tree
Node
p3026
(dp3027
g3
(lp3028
(idecision_tree
Node
p3029
(dp3030
g3
(lp3031
(idecision_tree
Node
p3032
(dp3033
g3
(lp3034
(idecision_tree
Node
p3035
(dp3036
g3
(lp3037
(idecision_tree
Node
p3038
(dp3039
g3
(lp3040
sg17
g18
(g22
S'\x00\x00\x00\x00\x00\x00\x00\x00'
p3041
tp3042
Rp3043
sg28
Nsba(idecision_tree
Node
p3044
(dp3045
g3
(lp3046
(idecision_tree
Node
p3047
(dp3048
g3
(lp3049
sg17
g18
(g22
S'\x00\x00\x00\x00\x00\x00\x00\x00'
p3050
tp3051
Rp3052
sg28
Nsba(idecision_tree
Node
p3053
(dp3054
g3
(lp3055
sg17
g18
(g22
S'\x01\x00\x00\x00\x00\x00\x00\x00'
p3056
tp3057
Rp3058
sg28
Nsbasg17
Nsg28
I21
sbasg17
Nsg28
I7
sba(idecision_tree
Node
p3059
(dp3060
g3
(lp3061
(idecision_tree
Node
p3062
(dp3063
g3
(lp3064
sg17
g18
(g22
S'\x00\x00\x00\x00\x00\x00\x00\x00'
p3065
tp3066
Rp3067
sg28
Nsba(idecision_tree
Node
p3068
(dp3069
g3
(lp3070
sg17
g18
(g22
S'\x01\x00\x00\x00\x00\x00\x00\x00'
p3071
tp3072
Rp3073
sg28
Nsbasg17
Nsg28
I34
sbasg17
Nsg28
I37
sba(idecision_tree
Node
p3074
(dp3075
g3
(lp3076
(idecision_tree
Node
p3077
(dp3078
g3
(lp3079
sg17
g18
(g22
S'\x00\x00\x00\x00\x00\x00\x00\x00'
p3080
tp3081
Rp3082
sg28
Nsba(idecision_tree
Node
p3083
(dp3084
g3
(lp3085
(idecision_tree
Node
p3086
(dp3087
g3
(lp3088
sg17
g18
(g22
S'\x01\x00\x00\x00\x00\x00\x00\x00'
p3089
tp3090
Rp3091
sg28
Nsba(idecision_tree
Node
p3092
(dp3093
g3
(lp3094
sg17
g18
(g22
S'\x00\x00\x00\x00\x00\x00\x00\x00'
p3095
tp3096
Rp3097
sg28
Nsbasg17
Nsg28
I5
sbasg17
Nsg28
I44
sbasg17
Nsg28
I13
sba(idecision_tree
Node
p3098
(dp3099
g3
(lp3100
(idecision_tree
Node
p3101
(dp3102
g3
(lp3103
(idecision_tree
Node
p3104
(dp3105
g3
(lp3106
(idecision_tree
Node
p3107
(dp3108
g3
(lp3109
(idecision_tree
Node
p3110
(dp3111
g3
(lp3112
sg17
g18
(g22
S'\x00\x00\x00\x00\x00\x00\x00\x00'
p3113
tp3114
Rp3115
sg28
Nsba(idecision_tree
Node
p3116
(dp3117
g3
(lp3118
sg17
g18
(g22
S'\x01\x00\x00\x00\x00\x00\x00\x00'
p3119
tp3120
Rp3121
sg28
Nsbasg17
Nsg28
I20
sba(idecision_tree
Node
p3122
(dp3123
g3
(lp3124
sg17
g18
(g22
S'\x01\x00\x00\x00\x00\x00\x00\x00'
p3125
tp3126
Rp3127
sg28
Nsbasg17
Nsg28
I0
sba(idecision_tree
Node
p3128
(dp3129
g3
(lp3130
sg17
g18
(g22
S'\x00\x00\x00\x00\x00\x00\x00\x00'
p3131
tp3132
Rp3133
sg28
Nsbasg17
Nsg28
I42
sba(idecision_tree
Node
p3134
(dp3135
g3
(lp3136
(idecision_tree
Node
p3137
(dp3138
g3
(lp3139
sg17
g18
(g22
S'\x00\x00\x00\x00\x00\x00\x00\x00'
p3140
tp3141
Rp3142
sg28
Nsba(idecision_tree
Node
p3143
(dp3144
g3
(lp3145
sg17
g18
(g22
S'\x01\x00\x00\x00\x00\x00\x00\x00'
p3146
tp3147
Rp3148
sg28
Nsbasg17
Nsg28
I30
sbasg17
Nsg28
I19
sbasg17
Nsg28
I14
sbasg17
Nsg28
I16
sbasg17
Nsg28
I24
sba(idecision_tree
Node
p3149
(dp3150
g3
(lp3151
(idecision_tree
Node
p3152
(dp3153
g3
(lp3154
(idecision_tree
Node
p3155
(dp3156
g3
(lp3157
(idecision_tree
Node
p3158
(dp3159
g3
(lp3160
(idecision_tree
Node
p3161
(dp3162
g3
(lp3163
sg17
g18
(g22
S'\x00\x00\x00\x00\x00\x00\x00\x00'
p3164
tp3165
Rp3166
sg28
Nsba(idecision_tree
Node
p3167
(dp3168
g3
(lp3169
(idecision_tree
Node
p3170
(dp3171
g3
(lp3172
sg17
g18
(g22
S'\x00\x00\x00\x00\x00\x00\x00\x00'
p3173
tp3174
Rp3175
sg28
Nsba(idecision_tree
Node
p3176
(dp3177
g3
(lp3178
(idecision_tree
Node
p3179
(dp3180
g3
(lp3181
sg17
g18
(g22
S'\x01\x00\x00\x00\x00\x00\x00\x00'
p3182
tp3183
Rp3184
sg28
Nsba(idecision_tree
Node
p3185
(dp3186
g3
(lp3187
sg17
g18
(g22
S'\x00\x00\x00\x00\x00\x00\x00\x00'
p3188
tp3189
Rp3190
sg28
Nsbasg17
Nsg28
I5
sbasg17
Nsg28
I4
sbasg17
Nsg28
I38
sba(idecision_tree
Node
p3191
(dp3192
g3
(lp3193
(idecision_tree
Node
p3194
(dp3195
g3
(lp3196
sg17
g18
(g22
S'\x00\x00\x00\x00\x00\x00\x00\x00'
p3197
tp3198
Rp3199
sg28
Nsba(idecision_tree
Node
p3200
(dp3201
g3
(lp3202
(idecision_tree
Node
p3203
(dp3204
g3
(lp3205
(idecision_tree
Node
p3206
(dp3207
g3
(lp3208
(idecision_tree
Node
p3209
(dp3210
g3
(lp3211
sg17
g18
(g22
S'\x00\x00\x00\x00\x00\x00\x00\x00'
p3212
tp3213
Rp3214
sg28
Nsba(idecision_tree
Node
p3215
(dp3216
g3
(lp3217
(idecision_tree
Node
p3218
(dp3219
g3
(lp3220
sg17
g18
(g22
S'\x01\x00\x00\x00\x00\x00\x00\x00'
p3221
tp3222
Rp3223
sg28
Nsba(idecision_tree
Node
p3224
(dp3225
g3
(lp3226
sg17
g18
(g22
S'\x00\x00\x00\x00\x00\x00\x00\x00'
p3227
tp3228
Rp3229
sg28
Nsbasg17
Nsg28
I9
sbasg17
Nsg28
I11
sba(idecision_tree
Node
p3230
(dp3231
g3
(lp3232
(idecision_tree
Node
p3233
(dp3234
g3
(lp3235
sg17
g18
(g22
S'\x01\x00\x00\x00\x00\x00\x00\x00'
p3236
tp3237
Rp3238
sg28
Nsba(idecision_tree
Node
p3239
(dp3240
g3
(lp3241
sg17
g18
(g22
S'\x00\x00\x00\x00\x00\x00\x00\x00'
p3242
tp3243
Rp3244
sg28
Nsbasg17
Nsg28
I11
sbasg17
Nsg28
I44
sba(idecision_tree
Node
p3245
(dp3246
g3
(lp3247
sg17
g18
(g22
S'\x00\x00\x00\x00\x00\x00\x00\x00'
p3248
tp3249
Rp3250
sg28
Nsbasg17
Nsg28
I5
sbasg17
Nsg28
I24
sbasg17
Nsg28
I26
sba(idecision_tree
Node
p3251
(dp3252
g3
(lp3253
(idecision_tree
Node
p3254
(dp3255
g3
(lp3256
(idecision_tree
Node
p3257
(dp3258
g3
(lp3259
(idecision_tree
Node
p3260
(dp3261
g3
(lp3262
(idecision_tree
Node
p3263
(dp3264
g3
(lp3265
sg17
g18
(g22
S'\x00\x00\x00\x00\x00\x00\x00\x00'
p3266
tp3267
Rp3268
sg28
Nsba(idecision_tree
Node
p3269
(dp3270
g3
(lp3271
(idecision_tree
Node
p3272
(dp3273
g3
(lp3274
(idecision_tree
Node
p3275
(dp3276
g3
(lp3277
sg17
g18
(g22
S'\x00\x00\x00\x00\x00\x00\x00\x00'
p3278
tp3279
Rp3280
sg28
Nsba(idecision_tree
Node
p3281
(dp3282
g3
(lp3283
(idecision_tree
Node
p3284
(dp3285
g3
(lp3286
sg17
g18
(g22
S'\x01\x00\x00\x00\x00\x00\x00\x00'
p3287
tp3288
Rp3289
sg28
Nsba(idecision_tree
Node
p3290
(dp3291
g3
(lp3292
sg17
g18
(g22
S'\x00\x00\x00\x00\x00\x00\x00\x00'
p3293
tp3294
Rp3295
sg28
Nsbasg17
Nsg28
I3
sbasg17
Nsg28
I15
sba(idecision_tree
Node
p3296
(dp3297
g3
(lp3298
sg17
g18
(g22
S'\x01\x00\x00\x00\x00\x00\x00\x00'
p3299
tp3300
Rp3301
sg28
Nsbasg17
Nsg28
I36
sbasg17
Nsg28
I29
sba(idecision_tree
Node
p3302
(dp3303
g3
(lp3304
(idecision_tree
Node
p3305
(dp3306
g3
(lp3307
(idecision_tree
Node
p3308
(dp3309
g3
(lp3310
(idecision_tree
Node
p3311
(dp3312
g3
(lp3313
sg17
g18
(g22
S'\x00\x00\x00\x00\x00\x00\x00\x00'
p3314
tp3315
Rp3316
sg28
Nsba(idecision_tree
Node
p3317
(dp3318
g3
(lp3319
sg17
g18
(g22
S'\x01\x00\x00\x00\x00\x00\x00\x00'
p3320
tp3321
Rp3322
sg28
Nsbasg17
Nsg28
I24
sba(idecision_tree
Node
p3323
(dp3324
g3
(lp3325
sg17
g18
(g22
S'\x00\x00\x00\x00\x00\x00\x00\x00'
p3326
tp3327
Rp3328
sg28
Nsbasg17
Nsg28
I6
sba(idecision_tree
Node
p3329
(dp3330
g3
(lp3331
sg17
g18
(g22
S'\x00\x00\x00\x00\x00\x00\x00\x00'
p3332
tp3333
Rp3334
sg28
Nsbasg17
Nsg28
I5
sbasg17
Nsg28
I26
sba(idecision_tree
Node
p3335
(dp3336
g3
(lp3337
sg17
g18
(g22
S'\x00\x00\x00\x00\x00\x00\x00\x00'
p3338
tp3339
Rp3340
sg28
Nsbasg17
Nsg28
I16
sba(idecision_tree
Node
p3341
(dp3342
g3
(lp3343
(idecision_tree
Node
p3344
(dp3345
g3
(lp3346
(idecision_tree
Node
p3347
(dp3348
g3
(lp3349
(idecision_tree
Node
p3350
(dp3351
g3
(lp3352
(idecision_tree
Node
p3353
(dp3354
g3
(lp3355
(idecision_tree
Node
p3356
(dp3357
g3
(lp3358
sg17
g18
(g22
S'\x00\x00\x00\x00\x00\x00\x00\x00'
p3359
tp3360
Rp3361
sg28
Nsba(idecision_tree
Node
p3362
(dp3363
g3
(lp3364
sg17
g18
(g22
S'\x01\x00\x00\x00\x00\x00\x00\x00'
p3365
tp3366
Rp3367
sg28
Nsbasg17
Nsg28
I23
sba(idecision_tree
Node
p3368
(dp3369
g3
(lp3370
sg17
g18
(g22
S'\x01\x00\x00\x00\x00\x00\x00\x00'
p3371
tp3372
Rp3373
sg28
Nsbasg17
Nsg28
I25
sba(idecision_tree
Node
p3374
(dp3375
g3
(lp3376
sg17
g18
(g22
S'\x01\x00\x00\x00\x00\x00\x00\x00'
p3377
tp3378
Rp3379
sg28
Nsbasg17
Nsg28
I26
sba(idecision_tree
Node
p3380
(dp3381
g3
(lp3382
sg17
g18
(g22
S'\x00\x00\x00\x00\x00\x00\x00\x00'
p3383
tp3384
Rp3385
sg28
Nsbasg17
Nsg28
I15
sba(idecision_tree
Node
p3386
(dp3387
g3
(lp3388
sg17
g18
(g22
S'\x00\x00\x00\x00\x00\x00\x00\x00'
p3389
tp3390
Rp3391
sg28
Nsbasg17
Nsg28
I3
sbasg17
Nsg28
I4
sbasg17
Nsg28
I0
sba(idecision_tree
Node
p3392
(dp3393
g3
(lp3394
(idecision_tree
Node
p3395
(dp3396
g3
(lp3397
(idecision_tree
Node
p3398
(dp3399
g3
(lp3400
(idecision_tree
Node
p3401
(dp3402
g3
(lp3403
(idecision_tree
Node
p3404
(dp3405
g3
(lp3406
(idecision_tree
Node
p3407
(dp3408
g3
(lp3409
sg17
g18
(g22
S'\x00\x00\x00\x00\x00\x00\x00\x00'
p3410
tp3411
Rp3412
sg28
Nsba(idecision_tree
Node
p3413
(dp3414
g3
(lp3415
(idecision_tree
Node
p3416
(dp3417
g3
(lp3418
(idecision_tree
Node
p3419
(dp3420
g3
(lp3421
sg17
g18
(g22
S'\x00\x00\x00\x00\x00\x00\x00\x00'
p3422
tp3423
Rp3424
sg28
Nsba(idecision_tree
Node
p3425
(dp3426
g3
(lp3427
sg17
g18
(g22
S'\x01\x00\x00\x00\x00\x00\x00\x00'
p3428
tp3429
Rp3430
sg28
Nsbasg17
Nsg28
I4
sba(idecision_tree
Node
p3431
(dp3432
g3
(lp3433
sg17
g18
(g22
S'\x00\x00\x00\x00\x00\x00\x00\x00'
p3434
tp3435
Rp3436
sg28
Nsbasg17
Nsg28
I3
sbasg17
Nsg28
I35
sba(idecision_tree
Node
p3437
(dp3438
g3
(lp3439
(idecision_tree
Node
p3440
(dp3441
g3
(lp3442
(idecision_tree
Node
p3443
(dp3444
g3
(lp3445
(idecision_tree
Node
p3446
(dp3447
g3
(lp3448
(idecision_tree
Node
p3449
(dp3450
g3
(lp3451
(idecision_tree
Node
p3452
(dp3453
g3
(lp3454
sg17
g18
(g22
S'\x01\x00\x00\x00\x00\x00\x00\x00'
p3455
tp3456
Rp3457
sg28
Nsba(idecision_tree
Node
p3458
(dp3459
g3
(lp3460
(idecision_tree
Node
p3461
(dp3462
g3
(lp3463
sg17
g18
(g22
S'\x00\x00\x00\x00\x00\x00\x00\x00'
p3464
tp3465
Rp3466
sg28
Nsba(idecision_tree
Node
p3467
(dp3468
g3
(lp3469
sg17
g18
(g22
S'\x01\x00\x00\x00\x00\x00\x00\x00'
p3470
tp3471
Rp3472
sg28
Nsbasg17
Nsg28
I4
sbasg17
Nsg28
I30
sba(idecision_tree
Node
p3473
(dp3474
g3
(lp3475
sg17
g18
(g22
S'\x00\x00\x00\x00\x00\x00\x00\x00'
p3476
tp3477
Rp3478
sg28
Nsbasg17
Nsg28
I3
sba(idecision_tree
Node
p3479
(dp3480
g3
(lp3481
(idecision_tree
Node
p3482
(dp3483
g3
(lp3484
sg17
g18
(g22
S'\x00\x00\x00\x00\x00\x00\x00\x00'
p3485
tp3486
Rp3487
sg28
Nsba(idecision_tree
Node
p3488
(dp3489
g3
(lp3490
sg17
g18
(g22
S'\x01\x00\x00\x00\x00\x00\x00\x00'
p3491
tp3492
Rp3493
sg28
Nsbasg17
Nsg28
I44
sbasg17
Nsg28
I15
sba(idecision_tree
Node
p3494
(dp3495
g3
(lp3496
(idecision_tree
Node
p3497
(dp3498
g3
(lp3499
sg17
g18
(g22
S'\x00\x00\x00\x00\x00\x00\x00\x00'
p3500
tp3501
Rp3502
sg28
Nsba(idecision_tree
Node
p3503
(dp3504
g3
(lp3505
(idecision_tree
Node
p3506
(dp3507
g3
(lp3508
sg17
g18
(g22
S'\x00\x00\x00\x00\x00\x00\x00\x00'
p3509
tp3510
Rp3511
sg28
Nsba(idecision_tree
Node
p3512
(dp3513
g3
(lp3514
sg17
g18
(g22
S'\x01\x00\x00\x00\x00\x00\x00\x00'
p3515
tp3516
Rp3517
sg28
Nsbasg17
Nsg28
I0
sbasg17
Nsg28
I10
sbasg17
Nsg28
I11
sba(idecision_tree
Node
p3518
(dp3519
g3
(lp3520
sg17
g18
(g22
S'\x01\x00\x00\x00\x00\x00\x00\x00'
p3521
tp3522
Rp3523
sg28
Nsbasg17
Nsg28
I34
sbasg17
Nsg28
I24
sba(idecision_tree
Node
p3524
(dp3525
g3
(lp3526
sg17
g18
(g22
S'\x00\x00\x00\x00\x00\x00\x00\x00'
p3527
tp3528
Rp3529
sg28
Nsbasg17
Nsg28
I19
sba(idecision_tree
Node
p3530
(dp3531
g3
(lp3532
(idecision_tree
Node
p3533
(dp3534
g3
(lp3535
(idecision_tree
Node
p3536
(dp3537
g3
(lp3538
(idecision_tree
Node
p3539
(dp3540
g3
(lp3541
(idecision_tree
Node
p3542
(dp3543
g3
(lp3544
sg17
g18
(g22
S'\x01\x00\x00\x00\x00\x00\x00\x00'
p3545
tp3546
Rp3547
sg28
Nsba(idecision_tree
Node
p3548
(dp3549
g3
(lp3550
sg17
g18
(g22
S'\x00\x00\x00\x00\x00\x00\x00\x00'
p3551
tp3552
Rp3553
sg28
Nsbasg17
Nsg28
I22
sba(idecision_tree
Node
p3554
(dp3555
g3
(lp3556
(idecision_tree
Node
p3557
(dp3558
g3
(lp3559
sg17
g18
(g22
S'\x00\x00\x00\x00\x00\x00\x00\x00'
p3560
tp3561
Rp3562
sg28
Nsba(idecision_tree
Node
p3563
(dp3564
g3
(lp3565
sg17
g18
(g22
S'\x01\x00\x00\x00\x00\x00\x00\x00'
p3566
tp3567
Rp3568
sg28
Nsbasg17
Nsg28
I4
sbasg17
Nsg28
I3
sba(idecision_tree
Node
p3569
(dp3570
g3
(lp3571
(idecision_tree
Node
p3572
(dp3573
g3
(lp3574
sg17
g18
(g22
S'\x00\x00\x00\x00\x00\x00\x00\x00'
p3575
tp3576
Rp3577
sg28
Nsba(idecision_tree
Node
p3578
(dp3579
g3
(lp3580
sg17
g18
(g22
S'\x01\x00\x00\x00\x00\x00\x00\x00'
p3581
tp3582
Rp3583
sg28
Nsbasg17
Nsg28
I4
sbasg17
Nsg28
I11
sba(idecision_tree
Node
p3584
(dp3585
g3
(lp3586
(idecision_tree
Node
p3587
(dp3588
g3
(lp3589
sg17
g18
(g22
S'\x00\x00\x00\x00\x00\x00\x00\x00'
p3590
tp3591
Rp3592
sg28
Nsba(idecision_tree
Node
p3593
(dp3594
g3
(lp3595
(idecision_tree
Node
p3596
(dp3597
g3
(lp3598
sg17
g18
(g22
S'\x00\x00\x00\x00\x00\x00\x00\x00'
p3599
tp3600
Rp3601
sg28
Nsba(idecision_tree
Node
p3602
(dp3603
g3
(lp3604
sg17
g18
(g22
S'\x01\x00\x00\x00\x00\x00\x00\x00'
p3605
tp3606
Rp3607
sg28
Nsbasg17
Nsg28
I24
sbasg17
Nsg28
I4
sbasg17
Nsg28
I16
sbasg17
Nsg28
I25
sba(idecision_tree
Node
p3608
(dp3609
g3
(lp3610
(idecision_tree
Node
p3611
(dp3612
g3
(lp3613
(idecision_tree
Node
p3614
(dp3615
g3
(lp3616
(idecision_tree
Node
p3617
(dp3618
g3
(lp3619
sg17
g18
(g22
S'\x01\x00\x00\x00\x00\x00\x00\x00'
p3620
tp3621
Rp3622
sg28
Nsba(idecision_tree
Node
p3623
(dp3624
g3
(lp3625
(idecision_tree
Node
p3626
(dp3627
g3
(lp3628
sg17
g18
(g22
S'\x01\x00\x00\x00\x00\x00\x00\x00'
p3629
tp3630
Rp3631
sg28
Nsba(idecision_tree
Node
p3632
(dp3633
g3
(lp3634
sg17
g18
(g22
S'\x00\x00\x00\x00\x00\x00\x00\x00'
p3635
tp3636
Rp3637
sg28
Nsbasg17
Nsg28
I23
sbasg17
Nsg28
I3
sba(idecision_tree
Node
p3638
(dp3639
g3
(lp3640
(idecision_tree
Node
p3641
(dp3642
g3
(lp3643
(idecision_tree
Node
p3644
(dp3645
g3
(lp3646
sg17
g18
(g22
S'\x00\x00\x00\x00\x00\x00\x00\x00'
p3647
tp3648
Rp3649
sg28
Nsba(idecision_tree
Node
p3650
(dp3651
g3
(lp3652
(idecision_tree
Node
p3653
(dp3654
g3
(lp3655
sg17
g18
(g22
S'\x00\x00\x00\x00\x00\x00\x00\x00'
p3656
tp3657
Rp3658
sg28
Nsba(idecision_tree
Node
p3659
(dp3660
g3
(lp3661
sg17
g18
(g22
S'\x01\x00\x00\x00\x00\x00\x00\x00'
p3662
tp3663
Rp3664
sg28
Nsbasg17
Nsg28
I0
sbasg17
Nsg28
I27
sba(idecision_tree
Node
p3665
(dp3666
g3
(lp3667
(idecision_tree
Node
p3668
(dp3669
g3
(lp3670
sg17
g18
(g22
S'\x01\x00\x00\x00\x00\x00\x00\x00'
p3671
tp3672
Rp3673
sg28
Nsba(idecision_tree
Node
p3674
(dp3675
g3
(lp3676
sg17
g18
(g22
S'\x00\x00\x00\x00\x00\x00\x00\x00'
p3677
tp3678
Rp3679
sg28
Nsbasg17
Nsg28
I21
sbasg17
Nsg28
I24
sbasg17
Nsg28
I16
sba(idecision_tree
Node
p3680
(dp3681
g3
(lp3682
(idecision_tree
Node
p3683
(dp3684
g3
(lp3685
(idecision_tree
Node
p3686
(dp3687
g3
(lp3688
(idecision_tree
Node
p3689
(dp3690
g3
(lp3691
sg17
g18
(g22
S'\x01\x00\x00\x00\x00\x00\x00\x00'
p3692
tp3693
Rp3694
sg28
Nsba(idecision_tree
Node
p3695
(dp3696
g3
(lp3697
sg17
g18
(g22
S'\x00\x00\x00\x00\x00\x00\x00\x00'
p3698
tp3699
Rp3700
sg28
Nsbasg17
Nsg28
I8
sba(idecision_tree
Node
p3701
(dp3702
g3
(lp3703
(idecision_tree
Node
p3704
(dp3705
g3
(lp3706
sg17
g18
(g22
S'\x00\x00\x00\x00\x00\x00\x00\x00'
p3707
tp3708
Rp3709
sg28
Nsba(idecision_tree
Node
p3710
(dp3711
g3
(lp3712
(idecision_tree
Node
p3713
(dp3714
g3
(lp3715
sg17
g18
(g22
S'\x00\x00\x00\x00\x00\x00\x00\x00'
p3716
tp3717
Rp3718
sg28
Nsba(idecision_tree
Node
p3719
(dp3720
g3
(lp3721
sg17
g18
(g22
S'\x01\x00\x00\x00\x00\x00\x00\x00'
p3722
tp3723
Rp3724
sg28
Nsbasg17
Nsg28
I0
sbasg17
Nsg28
I33
sbasg17
Nsg28
I15
sba(idecision_tree
Node
p3725
(dp3726
g3
(lp3727
sg17
g18
(g22
S'\x00\x00\x00\x00\x00\x00\x00\x00'
p3728
tp3729
Rp3730
sg28
Nsbasg17
Nsg28
I16
sbasg17
Nsg28
I19
sbasg17
Nsg28
I26
sbasg17
Nsg28
I1
sba.